(dp1
S'output'
p2
S"<type 'exceptions.ImportError'> Cannot import module 'applications.SPE.modules.ldap'"
p3
sS'layer'
p4
S'/home/francisco/Repositories/USB/SPE/applications/SPE/models/db.py'
p5
sS'code'
p6
S"# -*- coding: utf-8 -*-\n\n#########################################################################\n## This scaffolding model makes your app work on Google App Engine too\n## File is released under public domain and you can use without limitations\n#########################################################################\n\n## if SSL/HTTPS is properly configured and you want all HTTP requests to\n## be redirected to HTTPS, uncomment the line below:\n# request.requires_https()\n\n## app configuration made easy. Look inside private/appconfig.ini\nfrom gluon.contrib.appconfig import AppConfig\nfrom gluon import current\n\nfrom applications.SPE_lib.modules.db_0_Area_Laboral import Area_Laboral_Table\nfrom applications.SPE_lib.modules.db_0_Area_Proyecto import Area_Proyecto_Table\nfrom applications.SPE_lib.modules.db_0_Categoria import Categoria_Table\nfrom applications.SPE_lib.modules.db_0_Dedicacion import Dedicacion_Table\nfrom applications.SPE_lib.modules.db_0_Division import Division_Table\nfrom applications.SPE_lib.modules.db_0_Etapa import Etapa_Table\nfrom applications.SPE_lib.modules.db_0_Periodo import Periodo_Table\nfrom applications.SPE_lib.modules.db_0_Sede import Sede_Table\nfrom applications.SPE_lib.modules.db_0_Tipo_Documento import Tipo_Documento_Table\nfrom applications.SPE_lib.modules.db_1_Acceso_Etapa import Acceso_Etapa_Table\nfrom applications.SPE_lib.modules.db_1_Accion_Usuario import Accion_Usuario_Table\nfrom applications.SPE_lib.modules.db_1_Coordinacion import Coordinacion_Table\nfrom applications.SPE_lib.modules.db_1_correo_Por_Verificar import correo_por_verificar_Table\nfrom applications.SPE_lib.modules.db_1_Departamento import Departamento_Table\nfrom applications.SPE_lib.modules.db_1_Materia import Materia_Table\nfrom applications.SPE_lib.modules.db_1_Pais import Pais_Table\nfrom applications.SPE_lib.modules.db_1_Universidad import Universidad_Table\nfrom applications.SPE_lib.modules.db_1_UsuarioUSB import UsuarioUSB_Table\nfrom applications.SPE_lib.modules.db_2_Administrativo import Administrativo_Table\nfrom applications.SPE_lib.modules.db_2_Carrera import Carrera_Table\nfrom applications.SPE_lib.modules.db_2_Coordinador import Coordinador_Table\nfrom applications.SPE_lib.modules.db_2_Estado import Estado_Table\nfrom applications.SPE_lib.modules.db_2_Profesor import Profesor_Table\nfrom applications.SPE_lib.modules.db_3_Empresa import Empresa_Table\nfrom applications.SPE_lib.modules.db_3_Estudiante import Estudiante_Table\nfrom applications.SPE_lib.modules.db_3_Tutor_Industrial import Tutor_Industrial_Table\n\nfrom applications.SPE_lib.modules.db_4_Curriculo import Curriculo_Table\nfrom applications.SPE_lib.modules.db_4_Pasantia import Pasantia_Table\nfrom applications.SPE_lib.modules.db_4_Permiso import Permiso_Table\nfrom applications.SPE_lib.modules.db_4_Permiso_Evaluacion import Permiso_Evaluacion_Table\nfrom applications.SPE_lib.modules.db_4_Retiro import Retiro_Table\n\nfrom applications.SPE_lib.modules.db_5_Colocacion import Colocacion_Table\nfrom applications.SPE_lib.modules.db_5_Ejecucion import Ejecucion_Table\nfrom applications.SPE_lib.modules.db_5_Inscripcion import Inscripcion_Table\nfrom applications.SPE_lib.modules.db_5_Plan_Trabajo import Plan_Trabajo_Table\nfrom applications.SPE_lib.modules.db_5_Preinscripcion import Preinscripcion_Table\nfrom applications.SPE_lib.modules.db_5_Calendario import Calendario_Table\n\nfrom applications.SPE_lib.modules.db_6_Fase import Fase_Table\n\nfrom applications.SPE_lib.modules.db_7_Actividad import Actividad_Table\nfrom applications.SPE_lib.modules.db_7_Materia_Periodo import Materia_Periodo_Table\n\nfrom applications.SPE_lib.modules.fixtures import load_fixtures\n# Se importan aqui para no tener que importarlos en el resto del sistema\nfrom Acciones_Usuario import construirAccion as construirAccion\nfrom Usuarios import Usuario\n\n## once in production, remove reload=True to gain full speed\nmyconf = AppConfig(reload=True)\n\n\nif not request.env.web2py_runtime_gae:\n    ## if NOT running on Google App Engine use SQLite or other DB\n    db = DAL(myconf.take('db.uri'), \n      pool_size=myconf.take('db.pool_size', cast=int), check_reserved=['all'],migrate=True)\nelse:\n    ## connect to Google BigTable (optional 'google:datastore://namespace')\n    db = DAL('google:datastore+ndb')\n    ## store sessions and tickets there\n    session.connect(request, response, db=db)\n    ## or store session in Memcache, Redis, etc.\n    ## from gluon.contrib.memdb import MEMDB\n    ## from google.appengine.api.memcache import Client\n    ## session.connect(request, response, db = MEMDB(Client()))\n\ncurrent.db = db\n## by default give a view/generic.extension to all actions from localhost\n## none otherwise. a pattern can be 'controller/function.extension'\nresponse.generic_patterns = ['*'] if request.is_local else []\n## choose a style for forms\n# or 'bootstrap3_stacked' or 'bootstrap2' or other\nresponse.formstyle = myconf.take('forms.formstyle')  \nresponse.form_label_separator = myconf.take('forms.separator')\n\n\n## (optional) optimize handling of static files\n# response.optimize_css = 'concat,minify,inline'\n# response.optimize_js = 'concat,minify,inline'\n## (optional) static assets folder versioning\n# response.static_version = '0.0.0'\n#########################################################################\n## Here is sample code if you need for\n## - email capabilities\n## - authentication (registration, login, logout, ... )\n## - authorization (role based authorization)\n## - services (xml, csv, json, xmlrpc, jsonrpc, amf, rss)\n## - old style crud actions\n## (more options discussed in gluon/tools.py)\n#########################################################################\n\nfrom gluon.tools import Auth, Service, PluginManager,Mail\n\nSede_Table(db,T)\nTipo_Documento_Table(db,T)\nPais_Table(db,T)\nEstado_Table(db,T)\nauth = Auth(db)\n\nauth.settings.extra_fields['auth_user']= [\n    Field('tipo_documento', 'reference Tipo_Documento',\n          label='Tipo de Documento (*)'),\n    Field('numero_documento',\n          requires=[IS_MATCH('^[0-9][0-9]*$',\n                             error_message='Introduzca una cedula.')],\n          label='Numero Documentacion (*)'),\n    Field('telefono',\n          requires=IS_MATCH('^\\d{4}?[\\s.-]?\\d{7}$',\n                            error_message='Numero no valido,ingrese numero telefonico'),\n          comment='0212-111111',\n          label='Telefono(*)'),\n    Field('direccion', 'text',\n          label='Direccion'),\n    Field('sexo',\n          requires=IS_IN_SET(['M', 'F']),\n          label='Sexo (*)'),\n    Field('activo', 'boolean'),\n    Field('pregunta_secreta', 'text',\n          requires=[IS_NOT_EMPTY\n                    (error_message='Campo necesario')],\n          label='Pregunta Secreta'),\n    Field('respuesta_secreta', 'string',\n          requires=[IS_NOT_EMPTY\n                    (error_message='Campo necesario')],\n          label='Respuesta Secreta'),\n    Field('pais', 'reference Pais',\n          label='Pais'),\n    Field('estado', 'reference Estado',\n          label='Estado'),\n]\n\n\ncurrent.auth = auth\nservice = Service()\nplugins = PluginManager()\n\n## create all tables needed by auth if not custom tables\nauth.define_tables(username=True, signature=False)\n## configure email\nmail = Mail()\nmail.settings.server = 'smtp.gmail.com:587'\nmail.settings.sender = 'sistemapasantiaEmpresarialusb@gmail.com'\nmail.settings.login = 'sistemapasantiaEmpresarialusb@gmail.com:speusb2016'\nmail.settings.tls = True\n\n## configure auth policy\nauth.settings.registration_requires_verification = False\nauth.settings.registration_requires_approval = False\nauth.settings.reset_password_requires_verification = True\n\n#########################################################################\n## Define your tables below (or better in another model file) for example\n##\n## >>> db.define_table('mytable',Field('myfield','string'))\n##\n## Fields can be 'string','text','password','integer','double','boolean'\n##       'date','time','datetime','blob','upload', 'reference TABLENAME'\n## There is an implicit 'id integer autoincrement' field\n## Consult manual for more options, validators, etc.\n##\n## More API examples for controllers:\n##\n## >>> db.mytable.insert(myfield='value')\n## >>> rows=db(db.mytable.myfield=='value').select(db.mytable.ALL)\n## >>> for row in rows: print row.id, row.myfield\n#########################################################################\n\n## after defining tables, uncomment below to enable auditing\nauth.enable_record_versioning(db)\n\nmail.settings.server = settings.email_server\nmail.settings.sender = settings.email_sender\nmail.settings.login = settings.email_login\n# Cargamos Nuestros Modelos\nArea_Laboral_Table(db,T)\nArea_Proyecto_Table(db,T)\nCategoria_Table(db,T)\nDedicacion_Table(db,T)\nDivision_Table(db,T)\nEtapa_Table(db,T)\nPeriodo_Table(db,T)\nAcceso_Etapa_Table(db,T)\nAccion_Usuario_Table(db,T)\nCoordinacion_Table(db,T)\ncorreo_por_verificar_Table(db,T)\nDepartamento_Table(db,T)\nMateria_Table(db,T)\nUniversidad_Table(db,T)\nUsuarioUSB_Table(db,T)\nAdministrativo_Table(db,T)\nCarrera_Table(db,T)\nCoordinador_Table(db,T)\nProfesor_Table(db,T)\nEmpresa_Table(db,T)\nEstudiante_Table(db,T)\nTutor_Industrial_Table(db,T)\nCurriculo_Table(db,T)\nPasantia_Table(db,T)\nPermiso_Table(db,T)\nPermiso_Evaluacion_Table(db,T)\nRetiro_Table(db,T)\nCalendario_Table(db,T)\nColocacion_Table(db,T)\nEjecucion_Table(db,T)\nInscripcion_Table(db,T)\nPlan_Trabajo_Table(db,T)\nPreinscripcion_Table(db,T)\nFase_Table(db,T)\nActividad_Table(db,T)\nMateria_Periodo_Table(db,T)\n# Cargamos La Data Predeterminada\nload_fixtures(db,T)\n"
p7
sS'snapshot'
p8
(dp9
S'exception'
p10
(dp11
S'__hash__'
p12
S"<method-wrapper '__hash__' of exceptions.ImportError object>"
p13
sS'__setattr__'
p14
S"<method-wrapper '__setattr__' of exceptions.ImportError object>"
p15
sS'__reduce_ex__'
p16
S'<built-in method __reduce_ex__ of exceptions.ImportError object>'
p17
sS'__getslice__'
p18
S"<method-wrapper '__getslice__' of exceptions.ImportError object>"
p19
sS'__getitem__'
p20
S"<method-wrapper '__getitem__' of exceptions.ImportError object>"
p21
sS'__setstate__'
p22
S'<built-in method __setstate__ of exceptions.ImportError object>'
p23
sS'args'
p24
S'("Cannot import module \'applications.SPE.modules.ldap\'",)'
p25
sS'__reduce__'
p26
S'<built-in method __reduce__ of exceptions.ImportError object>'
p27
sS'__str__'
p28
S"<method-wrapper '__str__' of exceptions.ImportError object>"
p29
sS'__format__'
p30
S'<built-in method __format__ of exceptions.ImportError object>'
p31
sS'__getattribute__'
p32
S"<method-wrapper '__getattribute__' of exceptions.ImportError object>"
p33
sS'__class__'
p34
S"<type 'exceptions.ImportError'>"
p35
sS'__unicode__'
p36
S'<built-in method __unicode__ of exceptions.ImportError object>'
p37
sS'__delattr__'
p38
S"<method-wrapper '__delattr__' of exceptions.ImportError object>"
p39
sS'__subclasshook__'
p40
S'<built-in method __subclasshook__ of type object>'
p41
sS'__repr__'
p42
S"<method-wrapper '__repr__' of exceptions.ImportError object>"
p43
sS'__dict__'
p44
S'{}'
p45
sS'__sizeof__'
p46
S'<built-in method __sizeof__ of exceptions.ImportError object>'
p47
sS'__doc__'
p48
S'"Import can\'t find module, or can\'t find name in module."'
p49
sS'__init__'
p50
S"<method-wrapper '__init__' of exceptions.ImportError object>"
p51
sS'__new__'
p52
S'<built-in method __new__ of type object>'
p53
ssS'evalue'
p54
S"Cannot import module 'applications.SPE.modules.ldap'"
p55
sS'request'
p56
cgluon.html
XML_unpickle
p57
(S'snP\x00\x00<div><table><tr><td style="font-weight:bold;vertical-align:top;">ajax</td><td style="vertical-align:top;">:</td><td><div>False</div></td></tr><tr><td style="font-weight:bold;vertical-align:top;">application</td><td style="vertical-align:top;">:</td><td><div>SPE</div></td></tr><tr><td style="font-weight:bold;vertical-align:top;">args</td><td style="vertical-align:top;">:</td><td><div><table></table></div></td></tr><tr><td style="font-weight:bold;vertical-align:top;">cid</td><td style="vertical-align:top;">:</td><td><div>None</div></td></tr><tr><td style="font-weight:bold;vertical-align:top;">client</td><td style="vertical-align:top;">:</td><td><div>127.0.0.1</div></td></tr><tr><td style="font-weight:bold;vertical-align:top;">controller</td><td style="vertical-align:top;">:</td><td><div>default</div></td></tr><tr><td style="font-weight:bold;vertical-align:top;">cookies</td><td style="vertical-align:top;">:</td><td><div><table><tr><td style="font-weight:bold;vertical-align:top;">csrftoken</td><td style="vertical-align:top;">:</td><td><div>qIs5F5FWGuUNeD9vKr5rV5L0SKcUkzNO<table><tr><td style="font-weight:bold;vertical-align:top;">comment</td><td style="vertical-align:top;">:</td><td><div></div></td></tr><tr><td style="font-weight:bold;vertical-align:top;">domain</td><td style="vertical-align:top;">:</td><td><div></div></td></tr><tr><td style="font-weight:bold;vertical-align:top;">expires</td><td style="vertical-align:top;">:</td><td><div></div></td></tr><tr><td style="font-weight:bold;vertical-align:top;">httponly</td><td style="vertical-align:top;">:</td><td><div></div></td></tr><tr><td style="font-weight:bold;vertical-align:top;">max-age</td><td style="vertical-align:top;">:</td><td><div></div></td></tr><tr><td style="font-weight:bold;vertical-align:top;">path</td><td style="vertical-align:top;">:</td><td><div></div></td></tr><tr><td style="font-weight:bold;vertical-align:top;">secure</td><td style="vertical-align:top;">:</td><td><div></div></td></tr><tr><td style="font-weight:bold;vertical-align:top;">version</td><td style="vertical-align:top;">:</td><td><div></div></td></tr></table></div></td></tr><tr><td style="font-weight:bold;vertical-align:top;">sessionid</td><td style="vertical-align:top;">:</td><td><div>piu4slcks2mmft53ul3jsbfs1y3maj55<table><tr><td style="font-weight:bold;vertical-align:top;">comment</td><td style="vertical-align:top;">:</td><td><div></div></td></tr><tr><td style="font-weight:bold;vertical-align:top;">domain</td><td style="vertical-align:top;">:</td><td><div></div></td></tr><tr><td style="font-weight:bold;vertical-align:top;">expires</td><td style="vertical-align:top;">:</td><td><div></div></td></tr><tr><td style="font-weight:bold;vertical-align:top;">httponly</td><td style="vertical-align:top;">:</td><td><div></div></td></tr><tr><td style="font-weight:bold;vertical-align:top;">max-age</td><td style="vertical-align:top;">:</td><td><div></div></td></tr><tr><td style="font-weight:bold;vertical-align:top;">path</td><td style="vertical-align:top;">:</td><td><div></div></td></tr><tr><td style="font-weight:bold;vertical-align:top;">secure</td><td style="vertical-align:top;">:</td><td><div></div></td></tr><tr><td style="font-weight:bold;vertical-align:top;">version</td><td style="vertical-align:top;">:</td><td><div></div></td></tr></table></div></td></tr></table></div></td></tr><tr><td style="font-weight:bold;vertical-align:top;">env</td><td style="vertical-align:top;">:</td><td><div><table><tr><td style="font-weight:bold;vertical-align:top;">HTTP_ACCEPT</td><td style="vertical-align:top;">:</td><td><div>text/html,application/xhtml+xml,application/xml;q=0.9,*/*;q=0.8</div></td></tr><tr><td style="font-weight:bold;vertical-align:top;">HTTP_ACCEPT_ENCODING</td><td style="vertical-align:top;">:</td><td><div>gzip, deflate</div></td></tr><tr><td style="font-weight:bold;vertical-align:top;">HTTP_ACCEPT_LANGUAGE</td><td style="vertical-align:top;">:</td><td><div>en-us;q=1.0</div></td></tr><tr><td style="font-weight:bold;vertical-align:top;">HTTP_CONNECTION</td><td style="vertical-align:top;">:</td><td><div>Keep-Alive</div></td></tr><tr><td style="font-weight:bold;vertical-align:top;">HTTP_COOKIE</td><td style="vertical-align:top;">:</td><td><div>sessionid=piu4slcks2mmft53ul3jsbfs1y3maj55; csrftoken=qIs5F5FWGuUNeD9vKr5rV5L0SKcUkzNO</div></td></tr><tr><td style="font-weight:bold;vertical-align:top;">HTTP_HOST</td><td style="vertical-align:top;">:</td><td><div>127.0.0.1:8000</div></td></tr><tr><td style="font-weight:bold;vertical-align:top;">HTTP_USER_AGENT</td><td style="vertical-align:top;">:</td><td><div>Mozilla/5.0 (X11; Linux) AppleWebKit/538.15 (KHTML, like Gecko) Chrome/46.0.2490.86 Safari/538.15 Midori/0.5</div></td></tr><tr><td style="font-weight:bold;vertical-align:top;">PATH_INFO</td><td style="vertical-align:top;">:</td><td><div>/</div></td></tr><tr><td style="font-weight:bold;vertical-align:top;">QUERY_STRING</td><td style="vertical-align:top;">:</td><td><div></div></td></tr><tr><td style="font-weight:bold;vertical-align:top;">REMOTE_ADDR</td><td style="vertical-align:top;">:</td><td><div>127.0.0.1</div></td></tr><tr><td style="font-weight:bold;vertical-align:top;">REMOTE_PORT</td><td style="vertical-align:top;">:</td><td><div>51190</div></td></tr><tr><td style="font-weight:bold;vertical-align:top;">REQUEST_METHOD</td><td style="vertical-align:top;">:</td><td><div>GET</div></td></tr><tr><td style="font-weight:bold;vertical-align:top;">SCRIPT_NAME</td><td style="vertical-align:top;">:</td><td><div></div></td></tr><tr><td style="font-weight:bold;vertical-align:top;">SERVER_NAME</td><td style="vertical-align:top;">:</td><td><div>francisco-C5500Q-C4505</div></td></tr><tr><td style="font-weight:bold;vertical-align:top;">SERVER_PORT</td><td style="vertical-align:top;">:</td><td><div>8000</div></td></tr><tr><td style="font-weight:bold;vertical-align:top;">SERVER_PROTOCOL</td><td style="vertical-align:top;">:</td><td><div>HTTP/1.1</div></td></tr><tr><td style="font-weight:bold;vertical-align:top;">SERVER_SOFTWARE</td><td style="vertical-align:top;">:</td><td><div>Rocket 1.2.6</div></td></tr><tr><td style="font-weight:bold;vertical-align:top;">app_folders</td><td style="vertical-align:top;">:</td><td><div>set([&#x27;/home/francisco/Repositories/USB/SPE/applications/SPE/&#x27;])</div></td></tr><tr><td style="font-weight:bold;vertical-align:top;">applications_parent</td><td style="vertical-align:top;">:</td><td><div>/home/francisco/Repositories/USB/SPE</div></td></tr><tr><td style="font-weight:bold;vertical-align:top;">cmd_args</td><td style="vertical-align:top;">:</td><td><div><table></table></div></td></tr><tr><td style="font-weight:bold;vertical-align:top;">cmd_options</td><td style="vertical-align:top;">:</td><td><div>&lt;Values at 0x7fb0837e7488: {&#x27;verbose&#x27;: False, &#x27;ip&#x27;: &#x27;127.0.0.1&#x27;, &#x27;debuglevel&#x27;: 30, &#x27;with_scheduler&#x27;: False, &#x27;shutdown_timeout&#x27;: 5, &#x27;taskbar&#x27;: False, &#x27;with_coverage&#x27;: False, &#x27;pid_filename&#x27;: &#x27;httpserver.pid&#x27;, &#x27;maxthreads&#x27;: None, &#x27;softcron&#x27;: False, &#x27;server_name&#x27;: &#x27;francisco-C5500Q-C4505&#x27;, &#x27;bpython&#x27;: False, &#x27;nogui&#x27;: False, &#x27;port&#x27;: 8000, &#x27;print_errors&#x27;: False, &#x27;extcron&#x27;: False, &#x27;runcron&#x27;: False, &#x27;run_system_tests&#x27;: False, &#x27;test&#x27;: None, &#x27;folder&#x27;: &#x27;/home/francisco/Repositories/USB/SPE&#x27;, &#x27;config&#x27;: &#x27;&#x27;, &#x27;minthreads&#x27;: None, &#x27;shell&#x27;: None, &#x27;run&#x27;: &#x27;&#x27;, &#x27;log_filename&#x27;: &#x27;httpserver.log&#x27;, &#x27;profiler_dir&#x27;: None, &#x27;args&#x27;: [&#x27;&#x27;], &#x27;socket_timeout&#x27;: 5, &#x27;ssl_ca_certificate&#x27;: None, &#x27;scheduler&#x27;: None, &#x27;interfaces&#x27;: None, &#x27;ssl_private_key&#x27;: &#x27;&#x27;, &#x27;gae&#x27;: None, &#x27;password&#x27;: &#x27;******&#x27;, &#x27;request_queue_size&#x27;: 5, &#x27;ssl_certificate&#x27;: &#x27;&#x27;, &#x27;cronjob&#x27;: False, &#x27;numthreads&#x27;: None, &#x27;quiet&#x27;: False, &#x27;import_models&#x27;: False, &#x27;timeout&#x27;: 10, &#x27;plain&#x27;: False, &#x27;nobanner&#x27;: False}&gt;</div></td></tr><tr><td style="font-weight:bold;vertical-align:top;">db_sessions</td><td style="vertical-align:top;">:</td><td><div>set([])</div></td></tr><tr><td style="font-weight:bold;vertical-align:top;">debugging</td><td style="vertical-align:top;">:</td><td><div>False</div></td></tr><tr><td style="font-weight:bold;vertical-align:top;">gluon_parent</td><td style="vertical-align:top;">:</td><td><div>/home/francisco/Repositories/USB/SPE</div></td></tr><tr><td style="font-weight:bold;vertical-align:top;">http_accept</td><td style="vertical-align:top;">:</td><td><div>text/html,application/xhtml+xml,application/xml;q=0.9,*/*;q=0.8</div></td></tr><tr><td style="font-weight:bold;vertical-align:top;">http_accept_encoding</td><td style="vertical-align:top;">:</td><td><div>gzip, deflate</div></td></tr><tr><td style="font-weight:bold;vertical-align:top;">http_accept_language</td><td style="vertical-align:top;">:</td><td><div>en-us;q=1.0</div></td></tr><tr><td style="font-weight:bold;vertical-align:top;">http_connection</td><td style="vertical-align:top;">:</td><td><div>Keep-Alive</div></td></tr><tr><td style="font-weight:bold;vertical-align:top;">http_cookie</td><td style="vertical-align:top;">:</td><td><div>sessionid=piu4slcks2mmft53ul3jsbfs1y3maj55; csrftoken=qIs5F5FWGuUNeD9vKr5rV5L0SKcUkzNO</div></td></tr><tr><td style="font-weight:bold;vertical-align:top;">http_host</td><td style="vertical-align:top;">:</td><td><div>127.0.0.1:8000</div></td></tr><tr><td style="font-weight:bold;vertical-align:top;">http_user_agent</td><td style="vertical-align:top;">:</td><td><div>Mozilla/5.0 (X11; Linux) AppleWebKit/538.15 (KHTML, like Gecko) Chrome/46.0.2490.86 Safari/538.15 Midori/0.5</div></td></tr><tr><td style="font-weight:bold;vertical-align:top;">is_jython</td><td style="vertical-align:top;">:</td><td><div>False</div></td></tr><tr><td style="font-weight:bold;vertical-align:top;">is_pypy</td><td style="vertical-align:top;">:</td><td><div>False</div></td></tr><tr><td style="font-weight:bold;vertical-align:top;">is_source</td><td style="vertical-align:top;">:</td><td><div>True</div></td></tr><tr><td style="font-weight:bold;vertical-align:top;">path_info</td><td style="vertical-align:top;">:</td><td><div>/</div></td></tr><tr><td style="font-weight:bold;vertical-align:top;">query_string</td><td style="vertical-align:top;">:</td><td><div></div></td></tr><tr><td style="font-weight:bold;vertical-align:top;">remote_addr</td><td style="vertical-align:top;">:</td><td><div>127.0.0.1</div></td></tr><tr><td style="font-weight:bold;vertical-align:top;">remote_port</td><td style="vertical-align:top;">:</td><td><div>51190</div></td></tr><tr><td style="font-weight:bold;vertical-align:top;">request_method</td><td style="vertical-align:top;">:</td><td><div>GET</div></td></tr><tr><td style="font-weight:bold;vertical-align:top;">request_uri</td><td style="vertical-align:top;">:</td><td><div>/SPE/default/index</div></td></tr><tr><td style="font-weight:bold;vertical-align:top;">script_name</td><td style="vertical-align:top;">:</td><td><div></div></td></tr><tr><td style="font-weight:bold;vertical-align:top;">server_name</td><td style="vertical-align:top;">:</td><td><div>francisco-C5500Q-C4505</div></td></tr><tr><td style="font-weight:bold;vertical-align:top;">server_port</td><td style="vertical-align:top;">:</td><td><div>8000</div></td></tr><tr><td style="font-weight:bold;vertical-align:top;">server_protocol</td><td style="vertical-align:top;">:</td><td><div>HTTP/1.1</div></td></tr><tr><td style="font-weight:bold;vertical-align:top;">server_software</td><td style="vertical-align:top;">:</td><td><div>Rocket 1.2.6</div></td></tr><tr><td style="font-weight:bold;vertical-align:top;">web2py_original_uri</td><td style="vertical-align:top;">:</td><td><div>/</div></td></tr><tr><td style="font-weight:bold;vertical-align:top;">web2py_path</td><td style="vertical-align:top;">:</td><td><div>/home/francisco/Repositories/USB/SPE</div></td></tr><tr><td style="font-weight:bold;vertical-align:top;">web2py_version</td><td style="vertical-align:top;">:</td><td><div>2.14.6-stable+timestamp.2016.05.10.00.21.47</div></td></tr><tr><td style="font-weight:bold;vertical-align:top;">wsgi.errors</td><td style="vertical-align:top;">:</td><td><div>&lt;open file &#x27;&lt;stderr&gt;&#x27;, mode &#x27;w&#x27; at 0x7fb08a1c51e0&gt;</div></td></tr><tr><td style="font-weight:bold;vertical-align:top;">wsgi.file_wrapper</td><td style="vertical-align:top;">:</td><td><div>&lt;class wsgiref.util.FileWrapper at 0x7fb083809a10&gt;</div></td></tr><tr><td style="font-weight:bold;vertical-align:top;">wsgi.input</td><td style="vertical-align:top;">:</td><td><div>&lt;socket._fileobject object at 0x7fb0837b1950&gt;</div></td></tr><tr><td style="font-weight:bold;vertical-align:top;">wsgi.multiprocess</td><td style="vertical-align:top;">:</td><td><div>False</div></td></tr><tr><td style="font-weight:bold;vertical-align:top;">wsgi.multithread</td><td style="vertical-align:top;">:</td><td><div>True</div></td></tr><tr><td style="font-weight:bold;vertical-align:top;">wsgi.run_once</td><td style="vertical-align:top;">:</td><td><div>False</div></td></tr><tr><td style="font-weight:bold;vertical-align:top;">wsgi.url_scheme</td><td style="vertical-align:top;">:</td><td><div>http</div></td></tr><tr><td style="font-weight:bold;vertical-align:top;">wsgi.version</td><td style="vertical-align:top;">:</td><td><div><table><tr><td><div>1</div></td></tr><tr><td><div>0</div></td></tr></table></div></td></tr><tr><td style="font-weight:bold;vertical-align:top;">wsgi_errors</td><td style="vertical-align:top;">:</td><td><div>&lt;open file &#x27;&lt;stderr&gt;&#x27;, mode &#x27;w&#x27; at 0x7fb08a1c51e0&gt;</div></td></tr><tr><td style="font-weight:bold;vertical-align:top;">wsgi_file_wrapper</td><td style="vertical-align:top;">:</td><td><div>&lt;class wsgiref.util.FileWrapper at 0x7fb083809a10&gt;</div></td></tr><tr><td style="font-weight:bold;vertical-align:top;">wsgi_input</td><td style="vertical-align:top;">:</td><td><div>&lt;socket._fileobject object at 0x7fb0837b1950&gt;</div></td></tr><tr><td style="font-weight:bold;vertical-align:top;">wsgi_multiprocess</td><td style="vertical-align:top;">:</td><td><div>False</div></td></tr><tr><td style="font-weight:bold;vertical-align:top;">wsgi_multithread</td><td style="vertical-align:top;">:</td><td><div>True</div></td></tr><tr><td style="font-weight:bold;vertical-align:top;">wsgi_run_once</td><td style="vertical-align:top;">:</td><td><div>False</div></td></tr><tr><td style="font-weight:bold;vertical-align:top;">wsgi_url_scheme</td><td style="vertical-align:top;">:</td><td><div>http</div></td></tr><tr><td style="font-weight:bold;vertical-align:top;">wsgi_version</td><td style="vertical-align:top;">:</td><td><div><table><tr><td><div>1</div></td></tr><tr><td><div>0</div></td></tr></table></div></td></tr></table></div></td></tr><tr><td style="font-weight:bold;vertical-align:top;">extension</td><td style="vertical-align:top;">:</td><td><div>html</div></td></tr><tr><td style="font-weight:bold;vertical-align:top;">folder</td><td style="vertical-align:top;">:</td><td><div>/home/francisco/Repositories/USB/SPE/applications/SPE/</div></td></tr><tr><td style="font-weight:bold;vertical-align:top;">function</td><td style="vertical-align:top;">:</td><td><div>index</div></td></tr><tr><td style="font-weight:bold;vertical-align:top;">global_settings</td><td style="vertical-align:top;">:</td><td><div><table><tr><td style="font-weight:bold;vertical-align:top;">app_folders</td><td style="vertical-align:top;">:</td><td><div>set([&#x27;/home/francisco/Repositories/USB/SPE/applications/SPE/&#x27;])</div></td></tr><tr><td style="font-weight:bold;vertical-align:top;">applications_parent</td><td style="vertical-align:top;">:</td><td><div>/home/francisco/Repositories/USB/SPE</div></td></tr><tr><td style="font-weight:bold;vertical-align:top;">cmd_args</td><td style="vertical-align:top;">:</td><td><div><table></table></div></td></tr><tr><td style="font-weight:bold;vertical-align:top;">cmd_options</td><td style="vertical-align:top;">:</td><td><div>&lt;Values at 0x7fb0837e7488: {&#x27;verbose&#x27;: False, &#x27;ip&#x27;: &#x27;127.0.0.1&#x27;, &#x27;debuglevel&#x27;: 30, &#x27;with_scheduler&#x27;: False, &#x27;shutdown_timeout&#x27;: 5, &#x27;taskbar&#x27;: False, &#x27;with_coverage&#x27;: False, &#x27;pid_filename&#x27;: &#x27;httpserver.pid&#x27;, &#x27;maxthreads&#x27;: None, &#x27;softcron&#x27;: False, &#x27;server_name&#x27;: &#x27;francisco-C5500Q-C4505&#x27;, &#x27;bpython&#x27;: False, &#x27;nogui&#x27;: False, &#x27;port&#x27;: 8000, &#x27;print_errors&#x27;: False, &#x27;extcron&#x27;: False, &#x27;runcron&#x27;: False, &#x27;run_system_tests&#x27;: False, &#x27;test&#x27;: None, &#x27;folder&#x27;: &#x27;/home/francisco/Repositories/USB/SPE&#x27;, &#x27;config&#x27;: &#x27;&#x27;, &#x27;minthreads&#x27;: None, &#x27;shell&#x27;: None, &#x27;run&#x27;: &#x27;&#x27;, &#x27;log_filename&#x27;: &#x27;httpserver.log&#x27;, &#x27;profiler_dir&#x27;: None, &#x27;args&#x27;: [&#x27;&#x27;], &#x27;socket_timeout&#x27;: 5, &#x27;ssl_ca_certificate&#x27;: None, &#x27;scheduler&#x27;: None, &#x27;interfaces&#x27;: None, &#x27;ssl_private_key&#x27;: &#x27;&#x27;, &#x27;gae&#x27;: None, &#x27;password&#x27;: &#x27;******&#x27;, &#x27;request_queue_size&#x27;: 5, &#x27;ssl_certificate&#x27;: &#x27;&#x27;, &#x27;cronjob&#x27;: False, &#x27;numthreads&#x27;: None, &#x27;quiet&#x27;: False, &#x27;import_models&#x27;: False, &#x27;timeout&#x27;: 10, &#x27;plain&#x27;: False, &#x27;nobanner&#x27;: False}&gt;</div></td></tr><tr><td style="font-weight:bold;vertical-align:top;">db_sessions</td><td style="vertical-align:top;">:</td><td><div>set([])</div></td></tr><tr><td style="font-weight:bold;vertical-align:top;">debugging</td><td style="vertical-align:top;">:</td><td><div>False</div></td></tr><tr><td style="font-weight:bold;vertical-align:top;">gluon_parent</td><td style="vertical-align:top;">:</td><td><div>/home/francisco/Repositories/USB/SPE</div></td></tr><tr><td style="font-weight:bold;vertical-align:top;">is_jython</td><td style="vertical-align:top;">:</td><td><div>False</div></td></tr><tr><td style="font-weight:bold;vertical-align:top;">is_pypy</td><td style="vertical-align:top;">:</td><td><div>False</div></td></tr><tr><td style="font-weight:bold;vertical-align:top;">is_source</td><td style="vertical-align:top;">:</td><td><div>True</div></td></tr><tr><td style="font-weight:bold;vertical-align:top;">local_hosts</td><td style="vertical-align:top;">:</td><td><div><table><tr><td><div>::1</div></td></tr><tr><td><div>127.0.1.1</div></td></tr><tr><td><div>::ffff:127.0.0.1</div></td></tr><tr><td><div>127.0.0.1</div></td></tr><tr><td><div>francisco-C5500Q-C4505</div></td></tr></table></div></td></tr><tr><td style="font-weight:bold;vertical-align:top;">web2py_version</td><td style="vertical-align:top;">:</td><td><div>2.14.6-stable+timestamp.2016.05.10.00.21.47</div></td></tr></table></div></td></tr><tr><td style="font-weight:bold;vertical-align:top;">is_https</td><td style="vertical-align:top;">:</td><td><div>False</div></td></tr><tr><td style="font-weight:bold;vertical-align:top;">is_local</td><td style="vertical-align:top;">:</td><td><div>True</div></td></tr><tr><td style="font-weight:bold;vertical-align:top;">is_restful</td><td style="vertical-align:top;">:</td><td><div>False</div></td></tr><tr><td style="font-weight:bold;vertical-align:top;">is_scheduler</td><td style="vertical-align:top;">:</td><td><div>False</div></td></tr><tr><td style="font-weight:bold;vertical-align:top;">is_shell</td><td style="vertical-align:top;">:</td><td><div>False</div></td></tr><tr><td style="font-weight:bold;vertical-align:top;">now</td><td style="vertical-align:top;">:</td><td><div>datetime.datetime(2016, 12, 21, 8, 45, 27, 488986)</div></td></tr><tr><td style="font-weight:bold;vertical-align:top;">url</td><td style="vertical-align:top;">:</td><td><div>/</div></td></tr><tr><td style="font-weight:bold;vertical-align:top;">utcnow</td><td style="vertical-align:top;">:</td><td><div>datetime.datetime(2016, 12, 21, 12, 45, 27, 489043)</div></td></tr><tr><td style="font-weight:bold;vertical-align:top;">wsgi</td><td style="vertical-align:top;">:</td><td><div>&lt;gluon.main.LazyWSGI object at 0x7fb080130410&gt;</div></td></tr></table></div>'
tRp58
sS'frames'
p59
(lp60
(dp61
S'file'
p62
S'/home/francisco/Repositories/USB/SPE/gluon/restricted.py'
p63
sS'dump'
p64
(dp65
S'environment'
p66
S"{'A': <class 'gluon.html.A'>, 'ANY_OF': <class 'gluon.validators.ANY_OF'>, 'ASSIGNJS': <function ASSIGNJS>, 'Acceso_Etapa_Table': <function Acceso_Etapa_Table>, 'Accion_Usuario_Table': <function Accion_Usuario_Table>, 'Actividad_Table': <function Actividad_Table>, 'Administrativo_Table': <function Administrativo_Table>, 'AppConfig': <function AppConfig>, 'Area_Laboral_Table': <function Area_Laboral_Table>, 'Area_Proyecto_Table': <function Area_Proyecto_Table>, ...}"
p67
sS'ccode'
p68
S'<code object <module> at 0x7fb0837d4d30, file "/.../USB/SPE/applications/SPE/models/db.py", line 13>'
p69
ssS'lnum'
p70
I227
sS'lines'
p71
(dp72
I224
S'            ccode = code'
p73
sI225
S'        else:'
p74
sI226
S'            ccode = compile2(code, layer)'
p75
sI227
S'        exec ccode in environment'
p76
sI228
S'    except HTTP:'
p77
sI229
S'        raise'
p78
sI230
S'    except RestrictedError:'
p79
sI231
S'        # do not encapsulate (obfuscate) the original RestrictedError'
p80
sI222
S'    try:'
p81
sI223
S'        if isinstance(code, types.CodeType):'
p82
ssS'call'
p83
S"(code='# -*- coding: utf-8 -*-\\n\\n#######################...gamos La Data Predeterminada\\nload_fixtures(db,T)\\n', environment={'A': <class 'gluon.html.A'>, 'ANY_OF': <class 'gluon.validators.ANY_OF'>, 'ASSIGNJS': <function ASSIGNJS>, 'Acceso_Etapa_Table': <function Acceso_Etapa_Table>, 'Accion_Usuario_Table': <function Accion_Usuario_Table>, 'Actividad_Table': <function Actividad_Table>, 'Administrativo_Table': <function Administrativo_Table>, 'AppConfig': <function AppConfig>, 'Area_Laboral_Table': <function Area_Laboral_Table>, 'Area_Proyecto_Table': <function Area_Proyecto_Table>, ...}, layer='/home/francisco/Repositories/USB/SPE/applications/SPE/models/db.py')"
p84
sS'func'
p85
S'restricted'
p86
sa(dp87
g62
S'/home/francisco/Repositories/USB/SPE/applications/SPE/models/db.py'
p88
sg64
(dp89
S'Usuarios'
p90
S'undefined'
p91
sS'Usuario'
p92
g91
ssg70
I64
sg71
(dp93
I64
S'from Usuarios import Usuario'
p94
sI65
S''
sI66
S'## once in production, remove reload=True to gain full speed'
p95
sI67
S'myconf = AppConfig(reload=True)'
p96
sI68
S''
sI59
S'from applications.SPE_lib.modules.db_7_Materia_Periodo import Materia_Periodo_Table'
p97
sI60
S''
sI61
S'from applications.SPE_lib.modules.fixtures import load_fixtures'
p98
sI62
S'# Se importan aqui para no tener que importarlos en el resto del sistema'
p99
sI63
S'from Acciones_Usuario import construirAccion as construirAccion'
p100
ssg83
S'()'
p101
sg85
S'<module>'
p102
sa(dp103
g62
S'/home/francisco/Repositories/USB/SPE/gluon/custom_import.py'
p104
sg64
(dp105
S'fromlist'
p106
S"('Usuario',)"
p107
sS'level'
p108
S'-1'
p109
sS'base_importer'
p110
S'<built-in function __import__>'
p111
sS'globals'
p112
S"{'A': <class 'gluon.html.A'>, 'ANY_OF': <class 'gluon.validators.ANY_OF'>, 'ASSIGNJS': <function ASSIGNJS>, 'Acceso_Etapa_Table': <function Acceso_Etapa_Table>, 'Accion_Usuario_Table': <function Accion_Usuario_Table>, 'Actividad_Table': <function Actividad_Table>, 'Administrativo_Table': <function Administrativo_Table>, 'AppConfig': <function AppConfig>, 'Area_Laboral_Table': <function Area_Laboral_Table>, 'Area_Proyecto_Table': <function Area_Proyecto_Table>, ...}"
p113
sS'pname'
p114
S"'applications.SPE.modules.Usuarios'"
p115
sS'locals'
p116
S"{'A': <class 'gluon.html.A'>, 'ANY_OF': <class 'gluon.validators.ANY_OF'>, 'ASSIGNJS': <function ASSIGNJS>, 'Acceso_Etapa_Table': <function Acceso_Etapa_Table>, 'Accion_Usuario_Table': <function Accion_Usuario_Table>, 'Actividad_Table': <function Actividad_Table>, 'Administrativo_Table': <function Administrativo_Table>, 'AppConfig': <function AppConfig>, 'Area_Laboral_Table': <function Area_Laboral_Table>, 'Area_Proyecto_Table': <function Area_Proyecto_Table>, ...}"
p117
ssg70
I95
sg71
(dp118
I96
S'        except ImportError, e1:'
p119
sI97
S'            import_tb = sys.exc_info()[2]'
p120
sI98
S'            try:'
p121
sI99
S'                return NATIVE_IMPORTER(name, globals, locals, fromlist, level)'
p122
sI90
S'                        modules_prefix += "." + itemname'
p123
sI91
S'                    return result'
p124
sI92
S'                else:'
p125
sI93
S'                    # import like "from x import a, b, ..."'
p126
sI94
S'                    pname = modules_prefix + "." + name'
p127
sI95
S'                    return base_importer(pname, globals, locals, fromlist, level)'
p128
ssg83
S"(name='Usuarios', globals={'A': <class 'gluon.html.A'>, 'ANY_OF': <class 'gluon.validators.ANY_OF'>, 'ASSIGNJS': <function ASSIGNJS>, 'Acceso_Etapa_Table': <function Acceso_Etapa_Table>, 'Accion_Usuario_Table': <function Accion_Usuario_Table>, 'Actividad_Table': <function Actividad_Table>, 'Administrativo_Table': <function Administrativo_Table>, 'AppConfig': <function AppConfig>, 'Area_Laboral_Table': <function Area_Laboral_Table>, 'Area_Proyecto_Table': <function Area_Proyecto_Table>, ...}, locals={'A': <class 'gluon.html.A'>, 'ANY_OF': <class 'gluon.validators.ANY_OF'>, 'ASSIGNJS': <function ASSIGNJS>, 'Acceso_Etapa_Table': <function Acceso_Etapa_Table>, 'Accion_Usuario_Table': <function Accion_Usuario_Table>, 'Actividad_Table': <function Actividad_Table>, 'Administrativo_Table': <function Administrativo_Table>, 'AppConfig': <function AppConfig>, 'Area_Laboral_Table': <function Area_Laboral_Table>, 'Area_Proyecto_Table': <function Area_Proyecto_Table>, ...}, fromlist=('Usuario',), level=-1)"
p129
sg85
S'custom_importer'
p130
sa(dp131
g62
S'/home/francisco/Repositories/USB/SPE/applications/SPE/modules/Usuarios.py'
p132
sg64
(dp133
S'usbutils'
p134
g91
sS'random_key'
p135
g91
ssg70
I8
sg71
(dp136
I3
S'from gluon import *'
p137
sI4
S'import DBhandler'
p138
sI5
S'from APIhandler import Model'
p139
sI6
S'import Encoder'
p140
sI7
S'from ast import literal_eval as to_object'
p141
sI8
S'from usbutils import random_key'
p142
sI9
S'from gluon import current'
p143
sI10
S''
sI11
S'def obtenerRoles(db,tipo):'
p144
sI12
S"\tif (tipo == 'Pregrado'):"
p145
ssg83
S'()'
p146
sg85
g102
sa(dp147
g62
S'/home/francisco/Repositories/USB/SPE/gluon/custom_import.py'
p148
sg64
(dp149
S'fromlist'
p150
S"('random_key',)"
p151
sS'level'
p152
S'-1'
p153
sS'base_importer'
p154
S'<built-in function __import__>'
p155
sS'globals'
p156
S"{'A': None, 'B': None, 'BEAUTIFY': None, 'BODY': None, 'BR': None, 'CAT': None, 'CENTER': None, 'CLEANUP': None, 'CODE': None, 'CRYPT': None, ...}"
p157
sS'pname'
p158
S"'applications.SPE.modules.usbutils'"
p159
sS'locals'
p160
S"{'A': None, 'B': None, 'BEAUTIFY': None, 'BODY': None, 'BR': None, 'CAT': None, 'CENTER': None, 'CLEANUP': None, 'CODE': None, 'CRYPT': None, ...}"
p161
ssg70
I95
sg71
(dp162
I96
S'        except ImportError, e1:'
p163
sI97
S'            import_tb = sys.exc_info()[2]'
p164
sI98
S'            try:'
p165
sI99
S'                return NATIVE_IMPORTER(name, globals, locals, fromlist, level)'
p166
sI90
S'                        modules_prefix += "." + itemname'
p167
sI91
S'                    return result'
p168
sI92
S'                else:'
p169
sI93
S'                    # import like "from x import a, b, ..."'
p170
sI94
S'                    pname = modules_prefix + "." + name'
p171
sI95
S'                    return base_importer(pname, globals, locals, fromlist, level)'
p172
ssg83
S"(name='usbutils', globals={'A': None, 'B': None, 'BEAUTIFY': None, 'BODY': None, 'BR': None, 'CAT': None, 'CENTER': None, 'CLEANUP': None, 'CODE': None, 'CRYPT': None, ...}, locals={'A': None, 'B': None, 'BEAUTIFY': None, 'BODY': None, 'BR': None, 'CAT': None, 'CENTER': None, 'CLEANUP': None, 'CODE': None, 'CRYPT': None, ...}, fromlist=('random_key',), level=-1)"
p173
sg85
g130
sa(dp174
g62
S'/home/francisco/Repositories/USB/SPE/applications/SPE/modules/usbutils.py'
p175
sg64
(dp176
S'ldap'
p177
g91
ssg70
I2
sg71
(dp178
I2
S'import ldap'
p179
sI3
S'import string'
p180
sI4
S'import random'
p181
sI5
S''
sI6
S'# Requiere:'
p182
sI7
S'# sudo apt-get install libsasl2-dev python-dev libldap2-dev libssl-dev ldap-utils python-ldap'
p183
sI8
S'# El script de setupEnv.sh instala dichas dependencias'
p184
sI9
S''
sI10
S'def get_ldap_data(username):'
p185
sI11
S'    def getFirst(maybeList):'
p186
ssg83
S'()'
p187
sg85
g102
sa(dp188
g62
S'/home/francisco/Repositories/USB/SPE/gluon/custom_import.py'
p189
sg64
(dp190
S'builtinstr'
p191
S"<type 'str'>"
p192
sS'builtinImportError'
p193
S"<type 'exceptions.ImportError'>"
p194
sS'e'
S"KeyError('applications.SPE.modules.ldap',)"
p195
ssg70
I89
sg71
(dp196
I84
S'                        new_mod = base_importer('
p197
sI85
S'                            modules_prefix, globals, locals, [itemname], level)'
p198
sI86
S'                        try:'
p199
sI87
S"                            result = result or sys.modules[modules_prefix+'.'+itemname]"
p200
sI88
S'                        except KeyError, e:'
p201
sI89
S"                            raise ImportError, 'Cannot import module %s' % str(e)"
p202
sI90
S'                        modules_prefix += "." + itemname'
p203
sI91
S'                    return result'
p204
sI92
S'                else:'
p205
sI93
S'                    # import like "from x import a, b, ..."'
p206
ssg83
S"(name='ldap', globals={'__builtins__': {'ArithmeticError': <type 'exceptions.ArithmeticError'>, 'AssertionError': <type 'exceptions.AssertionError'>, 'AttributeError': <type 'exceptions.AttributeError'>, 'BaseException': <type 'exceptions.BaseException'>, 'BufferError': <type 'exceptions.BufferError'>, 'BytesWarning': <type 'exceptions.BytesWarning'>, 'DeprecationWarning': <type 'exceptions.DeprecationWarning'>, 'EOFError': <type 'exceptions.EOFError'>, 'Ellipsis': Ellipsis, 'EnvironmentError': <type 'exceptions.EnvironmentError'>, ...}, '__doc__': None, '__file__': None, '__name__': None, '__package__': None}, locals={'__builtins__': {'ArithmeticError': <type 'exceptions.ArithmeticError'>, 'AssertionError': <type 'exceptions.AssertionError'>, 'AttributeError': <type 'exceptions.AttributeError'>, 'BaseException': <type 'exceptions.BaseException'>, 'BufferError': <type 'exceptions.BufferError'>, 'BytesWarning': <type 'exceptions.BytesWarning'>, 'DeprecationWarning': <type 'exceptions.DeprecationWarning'>, 'EOFError': <type 'exceptions.EOFError'>, 'Ellipsis': Ellipsis, 'EnvironmentError': <type 'exceptions.EnvironmentError'>, ...}, '__doc__': None, '__file__': None, '__name__': None, '__package__': None}, fromlist=[], level=-1)"
p207
sg85
g130
sasS'pyver'
p208
S'Python 2.7.12: /home/francisco/Repositories/USB/SPE/env/bin/python (prefix: /home/francisco/Repositories/USB/SPE/env)'
p209
sS'session'
p210
g57
(S's\x1a\x00\x00\x00<div><table></table></div>'
tRp211
sS'etype'
p212
S"<type 'exceptions.ImportError'>"
p213
sS'date'
p214
S'Wed Dec 21 08:45:27 2016'
p215
sS'response'
p216
g57
(S's&\x16\x00\x00<div><table><tr><td style="font-weight:bold;vertical-align:top;">body</td><td style="vertical-align:top;">:</td><td><div>&lt;cStringIO.StringO object at 0x7fb082f53810&gt;</div></td></tr><tr><td style="font-weight:bold;vertical-align:top;">cookies</td><td style="vertical-align:top;">:</td><td><div><table><tr><td style="font-weight:bold;vertical-align:top;">session_id_spe</td><td style="vertical-align:top;">:</td><td><div>127.0.0.1-159058e8-9b5b-4b41-94bb-80cf03053433<table><tr><td style="font-weight:bold;vertical-align:top;">comment</td><td style="vertical-align:top;">:</td><td><div></div></td></tr><tr><td style="font-weight:bold;vertical-align:top;">domain</td><td style="vertical-align:top;">:</td><td><div></div></td></tr><tr><td style="font-weight:bold;vertical-align:top;">expires</td><td style="vertical-align:top;">:</td><td><div></div></td></tr><tr><td style="font-weight:bold;vertical-align:top;">httponly</td><td style="vertical-align:top;">:</td><td><div></div></td></tr><tr><td style="font-weight:bold;vertical-align:top;">max-age</td><td style="vertical-align:top;">:</td><td><div></div></td></tr><tr><td style="font-weight:bold;vertical-align:top;">path</td><td style="vertical-align:top;">:</td><td><div>/</div></td></tr><tr><td style="font-weight:bold;vertical-align:top;">secure</td><td style="vertical-align:top;">:</td><td><div></div></td></tr><tr><td style="font-weight:bold;vertical-align:top;">version</td><td style="vertical-align:top;">:</td><td><div></div></td></tr></table></div></td></tr></table></div></td></tr><tr><td style="font-weight:bold;vertical-align:top;">delimiters</td><td style="vertical-align:top;">:</td><td><div><table><tr><td><div>{{</div></td></tr><tr><td><div>}}</div></td></tr></table></div></td></tr><tr><td style="font-weight:bold;vertical-align:top;">files</td><td style="vertical-align:top;">:</td><td><div><table></table></div></td></tr><tr><td style="font-weight:bold;vertical-align:top;">flash</td><td style="vertical-align:top;">:</td><td><div></div></td></tr><tr><td style="font-weight:bold;vertical-align:top;">form_label_separator</td><td style="vertical-align:top;">:</td><td><div>: </div></td></tr><tr><td style="font-weight:bold;vertical-align:top;">formstyle</td><td style="vertical-align:top;">:</td><td><div>table3cols</div></td></tr><tr><td style="font-weight:bold;vertical-align:top;">generic_patterns</td><td style="vertical-align:top;">:</td><td><div><table><tr><td><div>*</div></td></tr></table></div></td></tr><tr><td style="font-weight:bold;vertical-align:top;">headers</td><td style="vertical-align:top;">:</td><td><div><table><tr><td style="font-weight:bold;vertical-align:top;">X-Powered-By</td><td style="vertical-align:top;">:</td><td><div>web2py</div></td></tr></table></div></td></tr><tr><td style="font-weight:bold;vertical-align:top;">menu</td><td style="vertical-align:top;">:</td><td><div><table></table></div></td></tr><tr><td style="font-weight:bold;vertical-align:top;">meta</td><td style="vertical-align:top;">:</td><td><div><table></table></div></td></tr><tr><td style="font-weight:bold;vertical-align:top;">models_to_run</td><td style="vertical-align:top;">:</td><td><div><table><tr><td><div>^\\w+\\.py$</div></td></tr><tr><td><div>^default/\\w+\\.py$</div></td></tr><tr><td><div>^default/index/\\w+\\.py$</div></td></tr></table></div></td></tr><tr><td style="font-weight:bold;vertical-align:top;">postprocessing</td><td style="vertical-align:top;">:</td><td><div><table></table></div></td></tr><tr><td style="font-weight:bold;vertical-align:top;">session_client</td><td style="vertical-align:top;">:</td><td><div>127.0.0.1</div></td></tr><tr><td style="font-weight:bold;vertical-align:top;">session_cookie_compression_level</td><td style="vertical-align:top;">:</td><td><div>None</div></td></tr><tr><td style="font-weight:bold;vertical-align:top;">session_cookie_expires</td><td style="vertical-align:top;">:</td><td><div>None</div></td></tr><tr><td style="font-weight:bold;vertical-align:top;">session_data_name</td><td style="vertical-align:top;">:</td><td><div>session_data_spe</div></td></tr><tr><td style="font-weight:bold;vertical-align:top;">session_file</td><td style="vertical-align:top;">:</td><td><div>None</div></td></tr><tr><td style="font-weight:bold;vertical-align:top;">session_filename</td><td style="vertical-align:top;">:</td><td><div>/home/francisco/Repositories/USB/SPE/applications/SPE/sessions/127.0.0.1-159058e8-9b5b-4b41-94bb-80cf03053433</div></td></tr><tr><td style="font-weight:bold;vertical-align:top;">session_hash</td><td style="vertical-align:top;">:</td><td><div>c0762cbf4baf7f9af97c051e7fcb8083</div></td></tr><tr><td style="font-weight:bold;vertical-align:top;">session_id</td><td style="vertical-align:top;">:</td><td><div>127.0.0.1-159058e8-9b5b-4b41-94bb-80cf03053433</div></td></tr><tr><td style="font-weight:bold;vertical-align:top;">session_id_name</td><td style="vertical-align:top;">:</td><td><div>session_id_spe</div></td></tr><tr><td style="font-weight:bold;vertical-align:top;">session_masterapp</td><td style="vertical-align:top;">:</td><td><div>SPE</div></td></tr><tr><td style="font-weight:bold;vertical-align:top;">session_new</td><td style="vertical-align:top;">:</td><td><div>True</div></td></tr><tr><td style="font-weight:bold;vertical-align:top;">session_storage_type</td><td style="vertical-align:top;">:</td><td><div>file</div></td></tr><tr><td style="font-weight:bold;vertical-align:top;">status</td><td style="vertical-align:top;">:</td><td><div>200</div></td></tr><tr><td style="font-weight:bold;vertical-align:top;">view</td><td style="vertical-align:top;">:</td><td><div>default/index.html</div></td></tr></table></div>'
tRp217
sS'locals'
p218
(dp219
S'fromlist'
p220
S'[]'
p221
sS'e'
S"KeyError('applications.SPE.modules.ldap',)"
p222
sS'name'
p223
S"'ldap'"
p224
sS'level'
p225
S'-1'
p226
sS'itemname'
p227
S"'ldap'"
p228
sS'e3'
p229
S"ImportError('No module named ldap',)"
p230
sS'base_importer'
p231
S'<built-in function __import__>'
p232
sS'globals'
p233
S"{'__builtins__': {'ArithmeticError': <type 'exceptions.ArithmeticError'>, 'AssertionError': <type 'exceptions.AssertionError'>, 'AttributeError': <type 'exceptions.AttributeError'>, 'BaseException': <type 'exceptions.BaseException'>, 'BufferError': <type 'exceptions.BufferError'>, 'BytesWarning': <type 'exceptions.BytesWarning'>, 'DeprecationWarning': <type 'exceptions.DeprecationWarning'>, 'EOFError': <type 'exceptions.EOFError'>, 'Ellipsis': Ellipsis, 'EnvironmentError': <type 'exceptions.EnvironmentError'>, ...}, '__doc__': None, '__file__': None, '__name__': None, '__package__': None}"
p234
sS'result'
p235
S'None'
p236
sS'items'
p237
S"['', 'home', 'francisco', 'Repositories', 'USB', 'SPE', 'applications', 'SPE']"
p238
sS'modules_prefix'
p239
S"'applications.SPE.modules'"
p240
sS'new_mod'
p241
S"<module 'applications.SPE.modules' from 'applications/SPE/modules/__init__.pyc'>"
p242
sS'e1'
p243
S'ImportError("Cannot import module \'applications.SPE.modules.ldap\'",)'
p244
sS'import_tb'
p245
S'None'
p246
sg218
S"{'__builtins__': {'ArithmeticError': <type 'exceptions.ArithmeticError'>, 'AssertionError': <type 'exceptions.AssertionError'>, 'AttributeError': <type 'exceptions.AttributeError'>, 'BaseException': <type 'exceptions.BaseException'>, 'BufferError': <type 'exceptions.BufferError'>, 'BytesWarning': <type 'exceptions.BytesWarning'>, 'DeprecationWarning': <type 'exceptions.DeprecationWarning'>, 'EOFError': <type 'exceptions.EOFError'>, 'Ellipsis': Ellipsis, 'EnvironmentError': <type 'exceptions.EnvironmentError'>, ...}, '__doc__': None, '__file__': None, '__name__': None, '__package__': None}"
p247
sS'oname'
p248
S"'ldap'"
p249
sssS'traceback'
p250
S'Traceback (most recent call last):\n  File "/home/francisco/Repositories/USB/SPE/gluon/restricted.py", line 227, in restricted\n    exec ccode in environment\n  File "/home/francisco/Repositories/USB/SPE/applications/SPE/models/db.py", line 64, in <module>\n    from Usuarios import Usuario\n  File "/home/francisco/Repositories/USB/SPE/gluon/custom_import.py", line 95, in custom_importer\n    return base_importer(pname, globals, locals, fromlist, level)\n  File "applications/SPE/modules/Usuarios.py", line 8, in <module>\n    from usbutils import random_key\n  File "/home/francisco/Repositories/USB/SPE/gluon/custom_import.py", line 95, in custom_importer\n    return base_importer(pname, globals, locals, fromlist, level)\n  File "applications/SPE/modules/usbutils.py", line 2, in <module>\n    import ldap\n  File "/home/francisco/Repositories/USB/SPE/gluon/custom_import.py", line 89, in custom_importer\n    raise ImportError, \'Cannot import module %s\' % str(e)\nImportError: Cannot import module \'applications.SPE.modules.ldap\'\n'
p251
s.