(dp1
S'output'
p2
S"<class 'gluon.contrib.pymysql.err.IntegrityError'> (1452, u'Cannot add or update a child row: a foreign key constraint fails (`SPE`.`Profesor`, CONSTRAINT `Profesor_ibfk_1` FOREIGN KEY (`usuario`) REFERENCES `UsuarioUSB` (`id`) ON DELETE CASCADE)')"
p3
sS'layer'
p4
S'/home/francisco/Repositories/USB/SPE/applications/SPE/models/db.py'
p5
sS'code'
p6
S"# -*- coding: utf-8 -*-\n\n#########################################################################\n## This scaffolding model makes your app work on Google App Engine too\n## File is released under public domain and you can use without limitations\n#########################################################################\n\n## if SSL/HTTPS is properly configured and you want all HTTP requests to\n## be redirected to HTTPS, uncomment the line below:\n# request.requires_https()\n\n## app configuration made easy. Look inside private/appconfig.ini\nfrom gluon.contrib.appconfig import AppConfig\nfrom gluon import current\n\nfrom applications.SPE_lib.modules.db_0_Area_Laboral import Area_Laboral_Table\nfrom applications.SPE_lib.modules.db_0_Area_Proyecto import Area_Proyecto_Table\nfrom applications.SPE_lib.modules.db_0_Categoria import Categoria_Table\nfrom applications.SPE_lib.modules.db_0_Dedicacion import Dedicacion_Table\nfrom applications.SPE_lib.modules.db_0_Division import Division_Table\nfrom applications.SPE_lib.modules.db_0_Etapa import Etapa_Table\nfrom applications.SPE_lib.modules.db_0_Periodo import Periodo_Table\nfrom applications.SPE_lib.modules.db_0_Sede import Sede_Table\nfrom applications.SPE_lib.modules.db_0_Tipo_Documento import Tipo_Documento_Table\nfrom applications.SPE_lib.modules.db_1_Acceso_Etapa import Acceso_Etapa_Table\nfrom applications.SPE_lib.modules.db_1_Accion_Usuario import Accion_Usuario_Table\nfrom applications.SPE_lib.modules.db_1_Coordinacion import Coordinacion_Table\nfrom applications.SPE_lib.modules.db_1_correo_Por_Verificar import correo_por_verificar_Table\nfrom applications.SPE_lib.modules.db_1_Departamento import Departamento_Table\nfrom applications.SPE_lib.modules.db_1_Materia import Materia_Table\nfrom applications.SPE_lib.modules.db_1_Pais import Pais_Table\nfrom applications.SPE_lib.modules.db_1_Universidad import Universidad_Table\nfrom applications.SPE_lib.modules.db_1_UsuarioUSB import UsuarioUSB_Table\nfrom applications.SPE_lib.modules.db_2_Administrativo import Administrativo_Table\nfrom applications.SPE_lib.modules.db_2_Carrera import Carrera_Table\nfrom applications.SPE_lib.modules.db_2_Coordinador import Coordinador_Table\nfrom applications.SPE_lib.modules.db_2_Estado import Estado_Table\nfrom applications.SPE_lib.modules.db_2_Profesor import Profesor_Table\nfrom applications.SPE_lib.modules.db_2_UsuarioExterno import UsuarioExterno_Table\nfrom applications.SPE_lib.modules.db_3_Empresa import Empresa_Table\nfrom applications.SPE_lib.modules.db_3_Estudiante import Estudiante_Table\nfrom applications.SPE_lib.modules.db_3_Tutor_Industrial import Tutor_Industrial_Table\n\nfrom applications.SPE_lib.modules.db_4_Curriculo import Curriculo_Table\nfrom applications.SPE_lib.modules.db_4_Pasantia import Pasantia_Table\nfrom applications.SPE_lib.modules.db_4_Permiso import Permiso_Table\nfrom applications.SPE_lib.modules.db_4_Permiso_Evaluacion import Permiso_Evaluacion_Table\nfrom applications.SPE_lib.modules.db_4_Retiro import Retiro_Table\n\nfrom applications.SPE_lib.modules.db_5_Colocacion import Colocacion_Table\nfrom applications.SPE_lib.modules.db_5_Ejecucion import Ejecucion_Table\nfrom applications.SPE_lib.modules.db_5_Inscripcion import Inscripcion_Table\nfrom applications.SPE_lib.modules.db_5_Plan_Trabajo import Plan_Trabajo_Table\nfrom applications.SPE_lib.modules.db_5_Preinscripcion import Preinscripcion_Table\nfrom applications.SPE_lib.modules.db_5_Calendario import Calendario_Table\n\nfrom applications.SPE_lib.modules.db_6_Fase import Fase_Table\n\nfrom applications.SPE_lib.modules.db_7_Actividad import Actividad_Table\nfrom applications.SPE_lib.modules.db_7_Materia_Periodo import Materia_Periodo_Table\n\nfrom applications.SPE_lib.modules.fixtures import load_fixtures\n# Se importan aqui para no tener que importarlos en el resto del sistema\nfrom Acciones_Usuario import construirAccion as construirAccion\nfrom Usuarios import Usuario\n\n## once in production, remove reload=True to gain full speed\nmyconf = AppConfig(reload=True)\n\n\nif not request.env.web2py_runtime_gae:\n    ## if NOT running on Google App Engine use SQLite or other DB\n    db = DAL(myconf.take('db.uri'), \n      pool_size=myconf.take('db.pool_size', cast=int), check_reserved=['all'],migrate=True)\nelse:\n    ## connect to Google BigTable (optional 'google:datastore://namespace')\n    db = DAL('google:datastore+ndb')\n    ## store sessions and tickets there\n    session.connect(request, response, db=db)\n    ## or store session in Memcache, Redis, etc.\n    ## from gluon.contrib.memdb import MEMDB\n    ## from google.appengine.api.memcache import Client\n    ## session.connect(request, response, db = MEMDB(Client()))\n\ncurrent.db = db\n## by default give a view/generic.extension to all actions from localhost\n## none otherwise. a pattern can be 'controller/function.extension'\nresponse.generic_patterns = ['*'] if request.is_local else []\n## choose a style for forms\n# or 'bootstrap3_stacked' or 'bootstrap2' or other\nresponse.formstyle = myconf.take('forms.formstyle')  \nresponse.form_label_separator = myconf.take('forms.separator')\n\n\n## (optional) optimize handling of static files\n# response.optimize_css = 'concat,minify,inline'\n# response.optimize_js = 'concat,minify,inline'\n## (optional) static assets folder versioning\n# response.static_version = '0.0.0'\n#########################################################################\n## Here is sample code if you need for\n## - email capabilities\n## - authentication (registration, login, logout, ... )\n## - authorization (role based authorization)\n## - services (xml, csv, json, xmlrpc, jsonrpc, amf, rss)\n## - old style crud actions\n## (more options discussed in gluon/tools.py)\n#########################################################################\n\nfrom gluon.tools import Auth, Service, PluginManager,Mail\n\nauth = Auth(db)\ncurrent.auth = auth\nservice = Service()\nplugins = PluginManager()\n\n## create all tables needed by auth if not custom tables\nauth.define_tables(username=True, signature=False)\n## configure email\nmail = Mail()\nmail.settings.server = 'smtp.gmail.com:587'\nmail.settings.sender = 'sistemapasantiaEmpresarialusb@gmail.com'\nmail.settings.login = 'sistemapasantiaEmpresarialusb@gmail.com:speusb2016'\nmail.settings.tls = True\n\n## configure auth policy\nauth.settings.registration_requires_verification = False\nauth.settings.registration_requires_approval = False\nauth.settings.reset_password_requires_verification = True\n\n#########################################################################\n## Define your tables below (or better in another model file) for example\n##\n## >>> db.define_table('mytable',Field('myfield','string'))\n##\n## Fields can be 'string','text','password','integer','double','boolean'\n##       'date','time','datetime','blob','upload', 'reference TABLENAME'\n## There is an implicit 'id integer autoincrement' field\n## Consult manual for more options, validators, etc.\n##\n## More API examples for controllers:\n##\n## >>> db.mytable.insert(myfield='value')\n## >>> rows=db(db.mytable.myfield=='value').select(db.mytable.ALL)\n## >>> for row in rows: print row.id, row.myfield\n#########################################################################\n\n## after defining tables, uncomment below to enable auditing\nauth.enable_record_versioning(db)\n\nmail.settings.server = settings.email_server\nmail.settings.sender = settings.email_sender\nmail.settings.login = settings.email_login\n# Cargamos Nuestros Modelos\nArea_Laboral_Table(db,T)\nArea_Proyecto_Table(db,T)\nCategoria_Table(db,T)\nDedicacion_Table(db,T)\nDivision_Table(db,T)\nEtapa_Table(db,T)\nPeriodo_Table(db,T)\nSede_Table(db,T)\nTipo_Documento_Table(db,T)\nAcceso_Etapa_Table(db,T)\nAccion_Usuario_Table(db,T)\nCoordinacion_Table(db,T)\ncorreo_por_verificar_Table(db,T)\nDepartamento_Table(db,T)\nMateria_Table(db,T)\nPais_Table(db,T)\nUniversidad_Table(db,T)\nUsuarioUSB_Table(db,T)\nAdministrativo_Table(db,T)\nCarrera_Table(db,T)\nCoordinador_Table(db,T)\nEstado_Table(db,T)\nProfesor_Table(db,T)\nUsuarioExterno_Table(db,T)\nEmpresa_Table(db,T)\nEstudiante_Table(db,T)\nTutor_Industrial_Table(db,T)\nCurriculo_Table(db,T)\nPasantia_Table(db,T)\nPermiso_Table(db,T)\nPermiso_Evaluacion_Table(db,T)\nRetiro_Table(db,T)\nCalendario_Table(db,T)\nColocacion_Table(db,T)\nEjecucion_Table(db,T)\nInscripcion_Table(db,T)\nPlan_Trabajo_Table(db,T)\nPreinscripcion_Table(db,T)\nFase_Table(db,T)\nActividad_Table(db,T)\nMateria_Periodo_Table(db,T)\n# Cargamos La Data Predeterminada\nload_fixtures(db,T)"
p7
sS'snapshot'
p8
(dp9
S'exception'
p10
(dp11
S'__module__'
p12
S"'gluon.contrib.pymysql.err'"
p13
sS'__getslice__'
p14
S"<method-wrapper '__getslice__' of IntegrityError object>"
p15
sS'__str__'
p16
S"<method-wrapper '__str__' of IntegrityError object>"
p17
sS'__reduce__'
p18
S'<built-in method __reduce__ of IntegrityError object>'
p19
sS'__dict__'
p20
S'{}'
p21
sS'__sizeof__'
p22
S'<built-in method __sizeof__ of IntegrityError object>'
p23
sS'__weakref__'
p24
S'None'
p25
sS'__init__'
p26
S"<method-wrapper '__init__' of IntegrityError object>"
p27
sS'__setattr__'
p28
S"<method-wrapper '__setattr__' of IntegrityError object>"
p29
sS'__reduce_ex__'
p30
S'<built-in method __reduce_ex__ of IntegrityError object>'
p31
sS'__new__'
p32
S'<built-in method __new__ of type object>'
p33
sS'__format__'
p34
S'<built-in method __format__ of IntegrityError object>'
p35
sS'__class__'
p36
S"<class 'gluon.contrib.pymysql.err.IntegrityError'>"
p37
sS'__doc__'
p38
S"'Exception raised when the relational integrity o... foreign key check fails, duplicate key,\\n    etc.'"
p39
sS'__getitem__'
p40
S"<method-wrapper '__getitem__' of IntegrityError object>"
p41
sS'__setstate__'
p42
S'<built-in method __setstate__ of IntegrityError object>'
p43
sS'__getattribute__'
p44
S"<method-wrapper '__getattribute__' of IntegrityError object>"
p45
sS'args'
p46
S"(1452, u'Cannot add or update a child row: a foreign ke...EFERENCES `UsuarioUSB` (`id`) ON DELETE CASCADE)')"
p47
sS'__subclasshook__'
p48
S'<built-in method __subclasshook__ of type object>'
p49
sS'__unicode__'
p50
S'<built-in method __unicode__ of IntegrityError object>'
p51
sS'__delattr__'
p52
S"<method-wrapper '__delattr__' of IntegrityError object>"
p53
sS'__repr__'
p54
S"<method-wrapper '__repr__' of IntegrityError object>"
p55
sS'__hash__'
p56
S"<method-wrapper '__hash__' of IntegrityError object>"
p57
ssS'evalue'
p58
S"(1452, u'Cannot add or update a child row: a foreign key constraint fails (`SPE`.`Profesor`, CONSTRAINT `Profesor_ibfk_1` FOREIGN KEY (`usuario`) REFERENCES `UsuarioUSB` (`id`) ON DELETE CASCADE)')"
p59
sS'request'
p60
cgluon.html
XML_unpickle
p61
(S's\xc5R\x00\x00<div><table><tr><td style="font-weight:bold;vertical-align:top;">ajax</td><td style="vertical-align:top;">:</td><td><div>False</div></td></tr><tr><td style="font-weight:bold;vertical-align:top;">application</td><td style="vertical-align:top;">:</td><td><div>SPE</div></td></tr><tr><td style="font-weight:bold;vertical-align:top;">args</td><td style="vertical-align:top;">:</td><td><div><table></table></div></td></tr><tr><td style="font-weight:bold;vertical-align:top;">cid</td><td style="vertical-align:top;">:</td><td><div>None</div></td></tr><tr><td style="font-weight:bold;vertical-align:top;">client</td><td style="vertical-align:top;">:</td><td><div>127.0.0.1</div></td></tr><tr><td style="font-weight:bold;vertical-align:top;">controller</td><td style="vertical-align:top;">:</td><td><div>default</div></td></tr><tr><td style="font-weight:bold;vertical-align:top;">cookies</td><td style="vertical-align:top;">:</td><td><div><table><tr><td style="font-weight:bold;vertical-align:top;">csrftoken</td><td style="vertical-align:top;">:</td><td><div>Pmc9PszU0SBWrM6vpnC8ITxX3lAZlzeL<table><tr><td style="font-weight:bold;vertical-align:top;">comment</td><td style="vertical-align:top;">:</td><td><div></div></td></tr><tr><td style="font-weight:bold;vertical-align:top;">domain</td><td style="vertical-align:top;">:</td><td><div></div></td></tr><tr><td style="font-weight:bold;vertical-align:top;">expires</td><td style="vertical-align:top;">:</td><td><div></div></td></tr><tr><td style="font-weight:bold;vertical-align:top;">httponly</td><td style="vertical-align:top;">:</td><td><div></div></td></tr><tr><td style="font-weight:bold;vertical-align:top;">max-age</td><td style="vertical-align:top;">:</td><td><div></div></td></tr><tr><td style="font-weight:bold;vertical-align:top;">path</td><td style="vertical-align:top;">:</td><td><div></div></td></tr><tr><td style="font-weight:bold;vertical-align:top;">secure</td><td style="vertical-align:top;">:</td><td><div></div></td></tr><tr><td style="font-weight:bold;vertical-align:top;">version</td><td style="vertical-align:top;">:</td><td><div></div></td></tr></table></div></td></tr><tr><td style="font-weight:bold;vertical-align:top;">sessionid</td><td style="vertical-align:top;">:</td><td><div>snb9psjujqwieq77oxlkug2fln9ax6m3<table><tr><td style="font-weight:bold;vertical-align:top;">comment</td><td style="vertical-align:top;">:</td><td><div></div></td></tr><tr><td style="font-weight:bold;vertical-align:top;">domain</td><td style="vertical-align:top;">:</td><td><div></div></td></tr><tr><td style="font-weight:bold;vertical-align:top;">expires</td><td style="vertical-align:top;">:</td><td><div></div></td></tr><tr><td style="font-weight:bold;vertical-align:top;">httponly</td><td style="vertical-align:top;">:</td><td><div></div></td></tr><tr><td style="font-weight:bold;vertical-align:top;">max-age</td><td style="vertical-align:top;">:</td><td><div></div></td></tr><tr><td style="font-weight:bold;vertical-align:top;">path</td><td style="vertical-align:top;">:</td><td><div></div></td></tr><tr><td style="font-weight:bold;vertical-align:top;">secure</td><td style="vertical-align:top;">:</td><td><div></div></td></tr><tr><td style="font-weight:bold;vertical-align:top;">version</td><td style="vertical-align:top;">:</td><td><div></div></td></tr></table></div></td></tr></table></div></td></tr><tr><td style="font-weight:bold;vertical-align:top;">env</td><td style="vertical-align:top;">:</td><td><div><table><tr><td style="font-weight:bold;vertical-align:top;">HTTP_ACCEPT</td><td style="vertical-align:top;">:</td><td><div>text/html,application/xhtml+xml,application/xml;q=0.9,image/webp,*/*;q=0.8</div></td></tr><tr><td style="font-weight:bold;vertical-align:top;">HTTP_ACCEPT_ENCODING</td><td style="vertical-align:top;">:</td><td><div>gzip, deflate, sdch</div></td></tr><tr><td style="font-weight:bold;vertical-align:top;">HTTP_ACCEPT_LANGUAGE</td><td style="vertical-align:top;">:</td><td><div>es,es-419;q=0.8</div></td></tr><tr><td style="font-weight:bold;vertical-align:top;">HTTP_CONNECTION</td><td style="vertical-align:top;">:</td><td><div>keep-alive</div></td></tr><tr><td style="font-weight:bold;vertical-align:top;">HTTP_COOKIE</td><td style="vertical-align:top;">:</td><td><div>sessionid=snb9psjujqwieq77oxlkug2fln9ax6m3; csrftoken=Pmc9PszU0SBWrM6vpnC8ITxX3lAZlzeL</div></td></tr><tr><td style="font-weight:bold;vertical-align:top;">HTTP_DNT</td><td style="vertical-align:top;">:</td><td><div>1</div></td></tr><tr><td style="font-weight:bold;vertical-align:top;">HTTP_HOST</td><td style="vertical-align:top;">:</td><td><div>127.0.0.1:8000</div></td></tr><tr><td style="font-weight:bold;vertical-align:top;">HTTP_UPGRADE_INSECURE_REQUESTS</td><td style="vertical-align:top;">:</td><td><div>1</div></td></tr><tr><td style="font-weight:bold;vertical-align:top;">HTTP_USER_AGENT</td><td style="vertical-align:top;">:</td><td><div>Mozilla/5.0 (X11; Linux x86_64) AppleWebKit/537.36 (KHTML, like Gecko) Chrome/53.0.2785.89 Safari/537.36</div></td></tr><tr><td style="font-weight:bold;vertical-align:top;">PATH_INFO</td><td style="vertical-align:top;">:</td><td><div>/</div></td></tr><tr><td style="font-weight:bold;vertical-align:top;">QUERY_STRING</td><td style="vertical-align:top;">:</td><td><div></div></td></tr><tr><td style="font-weight:bold;vertical-align:top;">REMOTE_ADDR</td><td style="vertical-align:top;">:</td><td><div>127.0.0.1</div></td></tr><tr><td style="font-weight:bold;vertical-align:top;">REMOTE_PORT</td><td style="vertical-align:top;">:</td><td><div>45032</div></td></tr><tr><td style="font-weight:bold;vertical-align:top;">REQUEST_METHOD</td><td style="vertical-align:top;">:</td><td><div>GET</div></td></tr><tr><td style="font-weight:bold;vertical-align:top;">SCRIPT_NAME</td><td style="vertical-align:top;">:</td><td><div></div></td></tr><tr><td style="font-weight:bold;vertical-align:top;">SERVER_NAME</td><td style="vertical-align:top;">:</td><td><div>francisco-C5500Q-C4505</div></td></tr><tr><td style="font-weight:bold;vertical-align:top;">SERVER_PORT</td><td style="vertical-align:top;">:</td><td><div>8000</div></td></tr><tr><td style="font-weight:bold;vertical-align:top;">SERVER_PROTOCOL</td><td style="vertical-align:top;">:</td><td><div>HTTP/1.1</div></td></tr><tr><td style="font-weight:bold;vertical-align:top;">SERVER_SOFTWARE</td><td style="vertical-align:top;">:</td><td><div>Rocket 1.2.6</div></td></tr><tr><td style="font-weight:bold;vertical-align:top;">app_folders</td><td style="vertical-align:top;">:</td><td><div>set([&#x27;/home/francisco/Repositories/USB/SPE/applications/SPE/&#x27;])</div></td></tr><tr><td style="font-weight:bold;vertical-align:top;">applications_parent</td><td style="vertical-align:top;">:</td><td><div>/home/francisco/Repositories/USB/SPE</div></td></tr><tr><td style="font-weight:bold;vertical-align:top;">cmd_args</td><td style="vertical-align:top;">:</td><td><div><table></table></div></td></tr><tr><td style="font-weight:bold;vertical-align:top;">cmd_options</td><td style="vertical-align:top;">:</td><td><div>&lt;Values at 0x7f3d72847c20: {&#x27;verbose&#x27;: False, &#x27;ip&#x27;: &#x27;127.0.0.1&#x27;, &#x27;debuglevel&#x27;: 30, &#x27;with_scheduler&#x27;: False, &#x27;shutdown_timeout&#x27;: 5, &#x27;taskbar&#x27;: False, &#x27;with_coverage&#x27;: False, &#x27;pid_filename&#x27;: &#x27;httpserver.pid&#x27;, &#x27;maxthreads&#x27;: None, &#x27;softcron&#x27;: False, &#x27;server_name&#x27;: &#x27;francisco-C5500Q-C4505&#x27;, &#x27;bpython&#x27;: False, &#x27;nogui&#x27;: False, &#x27;port&#x27;: 8000, &#x27;print_errors&#x27;: False, &#x27;extcron&#x27;: False, &#x27;runcron&#x27;: False, &#x27;run_system_tests&#x27;: False, &#x27;test&#x27;: None, &#x27;folder&#x27;: &#x27;/home/francisco/Repositories/USB/SPE&#x27;, &#x27;config&#x27;: &#x27;&#x27;, &#x27;minthreads&#x27;: None, &#x27;shell&#x27;: None, &#x27;run&#x27;: &#x27;&#x27;, &#x27;log_filename&#x27;: &#x27;httpserver.log&#x27;, &#x27;profiler_dir&#x27;: None, &#x27;args&#x27;: [&#x27;&#x27;], &#x27;socket_timeout&#x27;: 5, &#x27;ssl_ca_certificate&#x27;: None, &#x27;scheduler&#x27;: None, &#x27;interfaces&#x27;: None, &#x27;ssl_private_key&#x27;: &#x27;&#x27;, &#x27;gae&#x27;: None, &#x27;password&#x27;: &#x27;******&#x27;, &#x27;request_queue_size&#x27;: 5, &#x27;ssl_certificate&#x27;: &#x27;&#x27;, &#x27;cronjob&#x27;: False, &#x27;numthreads&#x27;: None, &#x27;quiet&#x27;: False, &#x27;import_models&#x27;: False, &#x27;timeout&#x27;: 10, &#x27;plain&#x27;: False, &#x27;nobanner&#x27;: False}&gt;</div></td></tr><tr><td style="font-weight:bold;vertical-align:top;">db_sessions</td><td style="vertical-align:top;">:</td><td><div>set([])</div></td></tr><tr><td style="font-weight:bold;vertical-align:top;">debugging</td><td style="vertical-align:top;">:</td><td><div>False</div></td></tr><tr><td style="font-weight:bold;vertical-align:top;">gluon_parent</td><td style="vertical-align:top;">:</td><td><div>/home/francisco/Repositories/USB/SPE</div></td></tr><tr><td style="font-weight:bold;vertical-align:top;">http_accept</td><td style="vertical-align:top;">:</td><td><div>text/html,application/xhtml+xml,application/xml;q=0.9,image/webp,*/*;q=0.8</div></td></tr><tr><td style="font-weight:bold;vertical-align:top;">http_accept_encoding</td><td style="vertical-align:top;">:</td><td><div>gzip, deflate, sdch</div></td></tr><tr><td style="font-weight:bold;vertical-align:top;">http_accept_language</td><td style="vertical-align:top;">:</td><td><div>es,es-419;q=0.8</div></td></tr><tr><td style="font-weight:bold;vertical-align:top;">http_connection</td><td style="vertical-align:top;">:</td><td><div>keep-alive</div></td></tr><tr><td style="font-weight:bold;vertical-align:top;">http_cookie</td><td style="vertical-align:top;">:</td><td><div>sessionid=snb9psjujqwieq77oxlkug2fln9ax6m3; csrftoken=Pmc9PszU0SBWrM6vpnC8ITxX3lAZlzeL</div></td></tr><tr><td style="font-weight:bold;vertical-align:top;">http_dnt</td><td style="vertical-align:top;">:</td><td><div>1</div></td></tr><tr><td style="font-weight:bold;vertical-align:top;">http_host</td><td style="vertical-align:top;">:</td><td><div>127.0.0.1:8000</div></td></tr><tr><td style="font-weight:bold;vertical-align:top;">http_upgrade_insecure_requests</td><td style="vertical-align:top;">:</td><td><div>1</div></td></tr><tr><td style="font-weight:bold;vertical-align:top;">http_user_agent</td><td style="vertical-align:top;">:</td><td><div>Mozilla/5.0 (X11; Linux x86_64) AppleWebKit/537.36 (KHTML, like Gecko) Chrome/53.0.2785.89 Safari/537.36</div></td></tr><tr><td style="font-weight:bold;vertical-align:top;">is_jython</td><td style="vertical-align:top;">:</td><td><div>False</div></td></tr><tr><td style="font-weight:bold;vertical-align:top;">is_pypy</td><td style="vertical-align:top;">:</td><td><div>False</div></td></tr><tr><td style="font-weight:bold;vertical-align:top;">is_source</td><td style="vertical-align:top;">:</td><td><div>True</div></td></tr><tr><td style="font-weight:bold;vertical-align:top;">path_info</td><td style="vertical-align:top;">:</td><td><div>/</div></td></tr><tr><td style="font-weight:bold;vertical-align:top;">query_string</td><td style="vertical-align:top;">:</td><td><div></div></td></tr><tr><td style="font-weight:bold;vertical-align:top;">remote_addr</td><td style="vertical-align:top;">:</td><td><div>127.0.0.1</div></td></tr><tr><td style="font-weight:bold;vertical-align:top;">remote_port</td><td style="vertical-align:top;">:</td><td><div>45032</div></td></tr><tr><td style="font-weight:bold;vertical-align:top;">request_method</td><td style="vertical-align:top;">:</td><td><div>GET</div></td></tr><tr><td style="font-weight:bold;vertical-align:top;">request_uri</td><td style="vertical-align:top;">:</td><td><div>/SPE/default/index</div></td></tr><tr><td style="font-weight:bold;vertical-align:top;">script_name</td><td style="vertical-align:top;">:</td><td><div></div></td></tr><tr><td style="font-weight:bold;vertical-align:top;">server_name</td><td style="vertical-align:top;">:</td><td><div>francisco-C5500Q-C4505</div></td></tr><tr><td style="font-weight:bold;vertical-align:top;">server_port</td><td style="vertical-align:top;">:</td><td><div>8000</div></td></tr><tr><td style="font-weight:bold;vertical-align:top;">server_protocol</td><td style="vertical-align:top;">:</td><td><div>HTTP/1.1</div></td></tr><tr><td style="font-weight:bold;vertical-align:top;">server_software</td><td style="vertical-align:top;">:</td><td><div>Rocket 1.2.6</div></td></tr><tr><td style="font-weight:bold;vertical-align:top;">web2py_original_uri</td><td style="vertical-align:top;">:</td><td><div>/</div></td></tr><tr><td style="font-weight:bold;vertical-align:top;">web2py_path</td><td style="vertical-align:top;">:</td><td><div>/home/francisco/Repositories/USB/SPE</div></td></tr><tr><td style="font-weight:bold;vertical-align:top;">web2py_version</td><td style="vertical-align:top;">:</td><td><div>2.14.6-stable+timestamp.2016.05.10.00.21.47</div></td></tr><tr><td style="font-weight:bold;vertical-align:top;">wsgi.errors</td><td style="vertical-align:top;">:</td><td><div>&lt;open file &#x27;&lt;stderr&gt;&#x27;, mode &#x27;w&#x27; at 0x7f3d79e9a1e0&gt;</div></td></tr><tr><td style="font-weight:bold;vertical-align:top;">wsgi.file_wrapper</td><td style="vertical-align:top;">:</td><td><div>&lt;class wsgiref.util.FileWrapper at 0x7f3d74e02ef0&gt;</div></td></tr><tr><td style="font-weight:bold;vertical-align:top;">wsgi.input</td><td style="vertical-align:top;">:</td><td><div>&lt;socket._fileobject object at 0x7f3d72833b50&gt;</div></td></tr><tr><td style="font-weight:bold;vertical-align:top;">wsgi.multiprocess</td><td style="vertical-align:top;">:</td><td><div>False</div></td></tr><tr><td style="font-weight:bold;vertical-align:top;">wsgi.multithread</td><td style="vertical-align:top;">:</td><td><div>True</div></td></tr><tr><td style="font-weight:bold;vertical-align:top;">wsgi.run_once</td><td style="vertical-align:top;">:</td><td><div>False</div></td></tr><tr><td style="font-weight:bold;vertical-align:top;">wsgi.url_scheme</td><td style="vertical-align:top;">:</td><td><div>http</div></td></tr><tr><td style="font-weight:bold;vertical-align:top;">wsgi.version</td><td style="vertical-align:top;">:</td><td><div><table><tr><td><div>1</div></td></tr><tr><td><div>0</div></td></tr></table></div></td></tr><tr><td style="font-weight:bold;vertical-align:top;">wsgi_errors</td><td style="vertical-align:top;">:</td><td><div>&lt;open file &#x27;&lt;stderr&gt;&#x27;, mode &#x27;w&#x27; at 0x7f3d79e9a1e0&gt;</div></td></tr><tr><td style="font-weight:bold;vertical-align:top;">wsgi_file_wrapper</td><td style="vertical-align:top;">:</td><td><div>&lt;class wsgiref.util.FileWrapper at 0x7f3d74e02ef0&gt;</div></td></tr><tr><td style="font-weight:bold;vertical-align:top;">wsgi_input</td><td style="vertical-align:top;">:</td><td><div>&lt;socket._fileobject object at 0x7f3d72833b50&gt;</div></td></tr><tr><td style="font-weight:bold;vertical-align:top;">wsgi_multiprocess</td><td style="vertical-align:top;">:</td><td><div>False</div></td></tr><tr><td style="font-weight:bold;vertical-align:top;">wsgi_multithread</td><td style="vertical-align:top;">:</td><td><div>True</div></td></tr><tr><td style="font-weight:bold;vertical-align:top;">wsgi_run_once</td><td style="vertical-align:top;">:</td><td><div>False</div></td></tr><tr><td style="font-weight:bold;vertical-align:top;">wsgi_url_scheme</td><td style="vertical-align:top;">:</td><td><div>http</div></td></tr><tr><td style="font-weight:bold;vertical-align:top;">wsgi_version</td><td style="vertical-align:top;">:</td><td><div><table><tr><td><div>1</div></td></tr><tr><td><div>0</div></td></tr></table></div></td></tr></table></div></td></tr><tr><td style="font-weight:bold;vertical-align:top;">extension</td><td style="vertical-align:top;">:</td><td><div>html</div></td></tr><tr><td style="font-weight:bold;vertical-align:top;">folder</td><td style="vertical-align:top;">:</td><td><div>/home/francisco/Repositories/USB/SPE/applications/SPE/</div></td></tr><tr><td style="font-weight:bold;vertical-align:top;">function</td><td style="vertical-align:top;">:</td><td><div>index</div></td></tr><tr><td style="font-weight:bold;vertical-align:top;">global_settings</td><td style="vertical-align:top;">:</td><td><div><table><tr><td style="font-weight:bold;vertical-align:top;">app_folders</td><td style="vertical-align:top;">:</td><td><div>set([&#x27;/home/francisco/Repositories/USB/SPE/applications/SPE/&#x27;])</div></td></tr><tr><td style="font-weight:bold;vertical-align:top;">applications_parent</td><td style="vertical-align:top;">:</td><td><div>/home/francisco/Repositories/USB/SPE</div></td></tr><tr><td style="font-weight:bold;vertical-align:top;">cmd_args</td><td style="vertical-align:top;">:</td><td><div><table></table></div></td></tr><tr><td style="font-weight:bold;vertical-align:top;">cmd_options</td><td style="vertical-align:top;">:</td><td><div>&lt;Values at 0x7f3d72847c20: {&#x27;verbose&#x27;: False, &#x27;ip&#x27;: &#x27;127.0.0.1&#x27;, &#x27;debuglevel&#x27;: 30, &#x27;with_scheduler&#x27;: False, &#x27;shutdown_timeout&#x27;: 5, &#x27;taskbar&#x27;: False, &#x27;with_coverage&#x27;: False, &#x27;pid_filename&#x27;: &#x27;httpserver.pid&#x27;, &#x27;maxthreads&#x27;: None, &#x27;softcron&#x27;: False, &#x27;server_name&#x27;: &#x27;francisco-C5500Q-C4505&#x27;, &#x27;bpython&#x27;: False, &#x27;nogui&#x27;: False, &#x27;port&#x27;: 8000, &#x27;print_errors&#x27;: False, &#x27;extcron&#x27;: False, &#x27;runcron&#x27;: False, &#x27;run_system_tests&#x27;: False, &#x27;test&#x27;: None, &#x27;folder&#x27;: &#x27;/home/francisco/Repositories/USB/SPE&#x27;, &#x27;config&#x27;: &#x27;&#x27;, &#x27;minthreads&#x27;: None, &#x27;shell&#x27;: None, &#x27;run&#x27;: &#x27;&#x27;, &#x27;log_filename&#x27;: &#x27;httpserver.log&#x27;, &#x27;profiler_dir&#x27;: None, &#x27;args&#x27;: [&#x27;&#x27;], &#x27;socket_timeout&#x27;: 5, &#x27;ssl_ca_certificate&#x27;: None, &#x27;scheduler&#x27;: None, &#x27;interfaces&#x27;: None, &#x27;ssl_private_key&#x27;: &#x27;&#x27;, &#x27;gae&#x27;: None, &#x27;password&#x27;: &#x27;******&#x27;, &#x27;request_queue_size&#x27;: 5, &#x27;ssl_certificate&#x27;: &#x27;&#x27;, &#x27;cronjob&#x27;: False, &#x27;numthreads&#x27;: None, &#x27;quiet&#x27;: False, &#x27;import_models&#x27;: False, &#x27;timeout&#x27;: 10, &#x27;plain&#x27;: False, &#x27;nobanner&#x27;: False}&gt;</div></td></tr><tr><td style="font-weight:bold;vertical-align:top;">db_sessions</td><td style="vertical-align:top;">:</td><td><div>set([])</div></td></tr><tr><td style="font-weight:bold;vertical-align:top;">debugging</td><td style="vertical-align:top;">:</td><td><div>False</div></td></tr><tr><td style="font-weight:bold;vertical-align:top;">gluon_parent</td><td style="vertical-align:top;">:</td><td><div>/home/francisco/Repositories/USB/SPE</div></td></tr><tr><td style="font-weight:bold;vertical-align:top;">is_jython</td><td style="vertical-align:top;">:</td><td><div>False</div></td></tr><tr><td style="font-weight:bold;vertical-align:top;">is_pypy</td><td style="vertical-align:top;">:</td><td><div>False</div></td></tr><tr><td style="font-weight:bold;vertical-align:top;">is_source</td><td style="vertical-align:top;">:</td><td><div>True</div></td></tr><tr><td style="font-weight:bold;vertical-align:top;">local_hosts</td><td style="vertical-align:top;">:</td><td><div><table><tr><td><div>::1</div></td></tr><tr><td><div>127.0.1.1</div></td></tr><tr><td><div>::ffff:127.0.0.1</div></td></tr><tr><td><div>127.0.0.1</div></td></tr><tr><td><div>francisco-C5500Q-C4505</div></td></tr></table></div></td></tr><tr><td style="font-weight:bold;vertical-align:top;">web2py_version</td><td style="vertical-align:top;">:</td><td><div>2.14.6-stable+timestamp.2016.05.10.00.21.47</div></td></tr></table></div></td></tr><tr><td style="font-weight:bold;vertical-align:top;">is_https</td><td style="vertical-align:top;">:</td><td><div>False</div></td></tr><tr><td style="font-weight:bold;vertical-align:top;">is_local</td><td style="vertical-align:top;">:</td><td><div>True</div></td></tr><tr><td style="font-weight:bold;vertical-align:top;">is_restful</td><td style="vertical-align:top;">:</td><td><div>False</div></td></tr><tr><td style="font-weight:bold;vertical-align:top;">is_scheduler</td><td style="vertical-align:top;">:</td><td><div>False</div></td></tr><tr><td style="font-weight:bold;vertical-align:top;">is_shell</td><td style="vertical-align:top;">:</td><td><div>False</div></td></tr><tr><td style="font-weight:bold;vertical-align:top;">now</td><td style="vertical-align:top;">:</td><td><div>datetime.datetime(2016, 11, 30, 19, 29, 10, 184485)</div></td></tr><tr><td style="font-weight:bold;vertical-align:top;">url</td><td style="vertical-align:top;">:</td><td><div>/</div></td></tr><tr><td style="font-weight:bold;vertical-align:top;">utcnow</td><td style="vertical-align:top;">:</td><td><div>datetime.datetime(2016, 11, 30, 23, 29, 10, 184543)</div></td></tr><tr><td style="font-weight:bold;vertical-align:top;">wsgi</td><td style="vertical-align:top;">:</td><td><div>&lt;gluon.main.LazyWSGI object at 0x7f3d71217510&gt;</div></td></tr></table></div>'
tRp62
sS'frames'
p63
(lp64
(dp65
S'file'
p66
S'/home/francisco/Repositories/USB/SPE/gluon/restricted.py'
p67
sS'dump'
p68
(dp69
S'environment'
p70
S"{'A': <class 'gluon.html.A'>, 'ANY_OF': <class 'gluon.validators.ANY_OF'>, 'ASSIGNJS': <function ASSIGNJS>, 'Acceso_Etapa_Table': <function Acceso_Etapa_Table>, 'Accion_Usuario_Table': <function Accion_Usuario_Table>, 'Actividad_Table': <function Actividad_Table>, 'Administrativo_Table': <function Administrativo_Table>, 'AppConfig': <function AppConfig>, 'Area_Laboral_Table': <function Area_Laboral_Table>, 'Area_Proyecto_Table': <function Area_Proyecto_Table>, ...}"
p71
sS'ccode'
p72
S'<code object <module> at 0x7f3d72833eb0, file "/.../USB/SPE/applications/SPE/models/db.py", line 13>'
p73
ssS'lnum'
p74
I227
sS'lines'
p75
(dp76
I224
S'            ccode = code'
p77
sI225
S'        else:'
p78
sI226
S'            ccode = compile2(code, layer)'
p79
sI227
S'        exec ccode in environment'
p80
sI228
S'    except HTTP:'
p81
sI229
S'        raise'
p82
sI230
S'    except RestrictedError:'
p83
sI231
S'        # do not encapsulate (obfuscate) the original RestrictedError'
p84
sI222
S'    try:'
p85
sI223
S'        if isinstance(code, types.CodeType):'
p86
ssS'call'
p87
S"(code='# -*- coding: utf-8 -*-\\n\\n#######################...rgamos La Data Predeterminada\\nload_fixtures(db,T)', environment={'A': <class 'gluon.html.A'>, 'ANY_OF': <class 'gluon.validators.ANY_OF'>, 'ASSIGNJS': <function ASSIGNJS>, 'Acceso_Etapa_Table': <function Acceso_Etapa_Table>, 'Accion_Usuario_Table': <function Accion_Usuario_Table>, 'Actividad_Table': <function Actividad_Table>, 'Administrativo_Table': <function Administrativo_Table>, 'AppConfig': <function AppConfig>, 'Area_Laboral_Table': <function Area_Laboral_Table>, 'Area_Proyecto_Table': <function Area_Proyecto_Table>, ...}, layer='/home/francisco/Repositories/USB/SPE/applications/SPE/models/db.py')"
p88
sS'func'
p89
S'restricted'
p90
sa(dp91
g66
S'/home/francisco/Repositories/USB/SPE/applications/SPE/models/db.py'
p92
sg68
(dp93
S'load_fixtures'
p94
S'<function load_fixtures>'
p95
sS'db'
p96
S'<DAL uri="mysql:******@localhost:3306/SPE">'
p97
sS'T'
S'<gluon.languages.translator object>'
p98
ssg74
I197
sg75
(dp99
I192
S'Preinscripcion_Table(db,T)'
p100
sI193
S'Fase_Table(db,T)'
p101
sI194
S'Actividad_Table(db,T)'
p102
sI195
S'Materia_Periodo_Table(db,T)'
p103
sI196
S'# Cargamos La Data Predeterminada'
p104
sI197
S'load_fixtures(db,T)'
p105
sI188
S'Colocacion_Table(db,T)'
p106
sI189
S'Ejecucion_Table(db,T)'
p107
sI190
S'Inscripcion_Table(db,T)'
p108
sI191
S'Plan_Trabajo_Table(db,T)'
p109
ssg87
S'()'
p110
sg89
S'<module>'
p111
sa(dp112
g66
S'/home/francisco/Repositories/USB/SPE/applications/SPE_lib/modules/fixtures.py'
p113
sg68
(dp114
S'activo'
p115
S'undefined'
p116
ssg74
I602
sg75
(dp117
I597
S"            usuario='10',"
p118
sI598
S"            categoria='1',"
p119
sI599
S"            dedicacion='1',"
p120
sI600
S"            departamento='1',"
p121
sI601
S"            sede='1',"
p122
sI602
S"            activo='True'"
p123
sI603
S'        )'
p124
sI604
S'        db.commit()'
p125
sI605
S''
sI606
S'    if db(db.Administrativo.id > 0).count() == 0:'
p126
ssg87
S'(db=<DAL uri="mysql:******@localhost:3306/SPE">, T=<gluon.languages.translator object>)'
p127
sg89
S'load_fixtures'
p128
sa(dp129
g66
S'/home/francisco/Repositories/USB/SPE/gluon/packages/dal/pydal/objects.py'
p130
sg68
(dp131
S'self._listify'
p132
S'<bound method Table._listify of <Table Profesor ...egoria, dedicacion, departamento, sede, activo)>>'
p133
sS'fields'
p134
S"{'activo': 'True', 'categoria': '1', 'dedicacion': '1', 'departamento': '1', 'id': '10', 'sede': '1', 'usuario': '10'}"
p135
sS'self'
p136
S'<Table Profesor (id, usuario, categoria, dedicacion, departamento, sede, activo)>'
p137
sS'ret'
p138
g116
sS'self._db._adapter'
p139
S'<pydal.adapters.mysql.MySQLAdapter object>'
p140
sS'self._db._adapter.insert'
p141
S'<bound method MySQLAdapter.insert of <pydal.adapters.mysql.MySQLAdapter object>>'
p142
sS'self._db'
p143
S'<DAL uri="mysql:******@localhost:3306/SPE">'
p144
ssg74
I726
sg75
(dp145
I721
S'    def insert(self, **fields):'
p146
sI722
S'        fields = self._defaults(fields)'
p147
sI723
S'        self._attempt_upload(fields)'
p148
sI724
S'        if any(f(fields) for f in self._before_insert):'
p149
sI725
S'            return 0'
p150
sI726
S'        ret = self._db._adapter.insert(self, self._listify(fields))'
p151
sI727
S'        if ret and self._after_insert:'
p152
sI728
S'            fields = Row(fields)'
p153
sI729
S'            [f(fields, ret) for f in self._after_insert]'
p154
sI730
S'        return ret'
p155
ssg87
S"(self=<Table Profesor (id, usuario, categoria, dedicacion, departamento, sede, activo)>, **fields={'activo': 'True', 'categoria': '1', 'dedicacion': '1', 'departamento': '1', 'id': '10', 'sede': '1', 'usuario': '10'})"
p156
sg89
S'insert'
p157
sa(dp158
g66
S'/home/francisco/Repositories/USB/SPE/gluon/packages/dal/pydal/adapters/base.py'
p159
sg68
(dp160
S'e'
S"IntegrityError(1452, u'Cannot add or update a ch...FERENCES `UsuarioUSB` (`id`) ON DELETE CASCADE)')"
p161
ssg74
I746
sg75
(dp162
I741
S'            self.execute(query)'
p163
sI742
S'        except Exception:'
p164
sI743
S'            e = sys.exc_info()[1]'
p165
sI744
S"            if hasattr(table,'_on_insert_error'):"
p166
sI745
S'                return table._on_insert_error(table,fields,e)'
p167
sI746
S'            raise e'
p168
sI747
S"        if hasattr(table, '_primarykey'):"
p169
sI748
S'            mydict = dict([(k[0].name, k[1]) for k in fields if k[0].name in table._primarykey])'
p170
sI749
S'            if mydict != {}:'
p171
sI750
S'                return mydict'
p172
ssg87
S"(self=<pydal.adapters.mysql.MySQLAdapter object>, table=<Table Profesor (id, usuario, categoria, dedicacion, departamento, sede, activo)>, fields=[(<pydal.objects.Field object>, '1'), (<pydal.objects.Field object>, '1'), (<pydal.objects.Field object>, '10'), (<pydal.objects.Field object>, '1'), (<pydal.objects.Field object>, '1'), (<pydal.objects.Field object>, 'True'), (<pydal.objects.Field object>, '10')])"
p173
sg89
g157
sasS'pyver'
p174
S'Python 2.7.12: /usr/bin/python (prefix: /usr)'
p175
sS'session'
p176
g61
(S's\x1a\x00\x00\x00<div><table></table></div>'
tRp177
sS'etype'
p178
S"<class 'gluon.contrib.pymysql.err.IntegrityError'>"
p179
sS'date'
p180
S'Wed Nov 30 19:29:12 2016'
p181
sS'response'
p182
g61
(S's+\x16\x00\x00<div><table><tr><td style="font-weight:bold;vertical-align:top;">body</td><td style="vertical-align:top;">:</td><td><div>&lt;cStringIO.StringO object at 0x7f3d711f0ae8&gt;</div></td></tr><tr><td style="font-weight:bold;vertical-align:top;">cookies</td><td style="vertical-align:top;">:</td><td><div><table><tr><td style="font-weight:bold;vertical-align:top;">session_id_spe</td><td style="vertical-align:top;">:</td><td><div>127.0.0.1-46f3492c-8160-42aa-bc3d-11c5c0b1c46e<table><tr><td style="font-weight:bold;vertical-align:top;">comment</td><td style="vertical-align:top;">:</td><td><div></div></td></tr><tr><td style="font-weight:bold;vertical-align:top;">domain</td><td style="vertical-align:top;">:</td><td><div></div></td></tr><tr><td style="font-weight:bold;vertical-align:top;">expires</td><td style="vertical-align:top;">:</td><td><div></div></td></tr><tr><td style="font-weight:bold;vertical-align:top;">httponly</td><td style="vertical-align:top;">:</td><td><div></div></td></tr><tr><td style="font-weight:bold;vertical-align:top;">max-age</td><td style="vertical-align:top;">:</td><td><div></div></td></tr><tr><td style="font-weight:bold;vertical-align:top;">path</td><td style="vertical-align:top;">:</td><td><div>/</div></td></tr><tr><td style="font-weight:bold;vertical-align:top;">secure</td><td style="vertical-align:top;">:</td><td><div></div></td></tr><tr><td style="font-weight:bold;vertical-align:top;">version</td><td style="vertical-align:top;">:</td><td><div></div></td></tr></table></div></td></tr></table></div></td></tr><tr><td style="font-weight:bold;vertical-align:top;">delimiters</td><td style="vertical-align:top;">:</td><td><div><table><tr><td><div>{{</div></td></tr><tr><td><div>}}</div></td></tr></table></div></td></tr><tr><td style="font-weight:bold;vertical-align:top;">files</td><td style="vertical-align:top;">:</td><td><div><table></table></div></td></tr><tr><td style="font-weight:bold;vertical-align:top;">flash</td><td style="vertical-align:top;">:</td><td><div></div></td></tr><tr><td style="font-weight:bold;vertical-align:top;">form_label_separator</td><td style="vertical-align:top;">:</td><td><div></div></td></tr><tr><td style="font-weight:bold;vertical-align:top;">formstyle</td><td style="vertical-align:top;">:</td><td><div>bootstrap3_inline</div></td></tr><tr><td style="font-weight:bold;vertical-align:top;">generic_patterns</td><td style="vertical-align:top;">:</td><td><div><table><tr><td><div>*</div></td></tr></table></div></td></tr><tr><td style="font-weight:bold;vertical-align:top;">headers</td><td style="vertical-align:top;">:</td><td><div><table><tr><td style="font-weight:bold;vertical-align:top;">X-Powered-By</td><td style="vertical-align:top;">:</td><td><div>web2py</div></td></tr></table></div></td></tr><tr><td style="font-weight:bold;vertical-align:top;">menu</td><td style="vertical-align:top;">:</td><td><div><table></table></div></td></tr><tr><td style="font-weight:bold;vertical-align:top;">meta</td><td style="vertical-align:top;">:</td><td><div><table></table></div></td></tr><tr><td style="font-weight:bold;vertical-align:top;">models_to_run</td><td style="vertical-align:top;">:</td><td><div><table><tr><td><div>^\\w+\\.py$</div></td></tr><tr><td><div>^default/\\w+\\.py$</div></td></tr><tr><td><div>^default/index/\\w+\\.py$</div></td></tr></table></div></td></tr><tr><td style="font-weight:bold;vertical-align:top;">postprocessing</td><td style="vertical-align:top;">:</td><td><div><table></table></div></td></tr><tr><td style="font-weight:bold;vertical-align:top;">session_client</td><td style="vertical-align:top;">:</td><td><div>127.0.0.1</div></td></tr><tr><td style="font-weight:bold;vertical-align:top;">session_cookie_compression_level</td><td style="vertical-align:top;">:</td><td><div>None</div></td></tr><tr><td style="font-weight:bold;vertical-align:top;">session_cookie_expires</td><td style="vertical-align:top;">:</td><td><div>None</div></td></tr><tr><td style="font-weight:bold;vertical-align:top;">session_data_name</td><td style="vertical-align:top;">:</td><td><div>session_data_spe</div></td></tr><tr><td style="font-weight:bold;vertical-align:top;">session_file</td><td style="vertical-align:top;">:</td><td><div>None</div></td></tr><tr><td style="font-weight:bold;vertical-align:top;">session_filename</td><td style="vertical-align:top;">:</td><td><div>/home/francisco/Repositories/USB/SPE/applications/SPE/sessions/127.0.0.1-46f3492c-8160-42aa-bc3d-11c5c0b1c46e</div></td></tr><tr><td style="font-weight:bold;vertical-align:top;">session_hash</td><td style="vertical-align:top;">:</td><td><div>c0762cbf4baf7f9af97c051e7fcb8083</div></td></tr><tr><td style="font-weight:bold;vertical-align:top;">session_id</td><td style="vertical-align:top;">:</td><td><div>127.0.0.1-46f3492c-8160-42aa-bc3d-11c5c0b1c46e</div></td></tr><tr><td style="font-weight:bold;vertical-align:top;">session_id_name</td><td style="vertical-align:top;">:</td><td><div>session_id_spe</div></td></tr><tr><td style="font-weight:bold;vertical-align:top;">session_masterapp</td><td style="vertical-align:top;">:</td><td><div>SPE</div></td></tr><tr><td style="font-weight:bold;vertical-align:top;">session_new</td><td style="vertical-align:top;">:</td><td><div>True</div></td></tr><tr><td style="font-weight:bold;vertical-align:top;">session_storage_type</td><td style="vertical-align:top;">:</td><td><div>file</div></td></tr><tr><td style="font-weight:bold;vertical-align:top;">status</td><td style="vertical-align:top;">:</td><td><div>200</div></td></tr><tr><td style="font-weight:bold;vertical-align:top;">view</td><td style="vertical-align:top;">:</td><td><div>default/index.html</div></td></tr></table></div>'
tRp183
sS'locals'
p184
(dp185
S'query'
p186
S'"INSERT INTO Profesor(categoria,dedicacion,usuari...mento,sede,activo,id) VALUES (1,1,10,1,1,\'T\',10);"'
p187
sS'self'
p188
S'<pydal.adapters.mysql.MySQLAdapter object>'
p189
sS'e'
S"IntegrityError(1452, u'Cannot add or update a ch...FERENCES `UsuarioUSB` (`id`) ON DELETE CASCADE)')"
p190
sS'fields'
p191
S"[(<pydal.objects.Field object>, '1'), (<pydal.objects.Field object>, '1'), (<pydal.objects.Field object>, '10'), (<pydal.objects.Field object>, '1'), (<pydal.objects.Field object>, '1'), (<pydal.objects.Field object>, 'True'), (<pydal.objects.Field object>, '10')]"
p192
sS'table'
p193
S'<Table Profesor (id, usuario, categoria, dedicacion, departamento, sede, activo)>'
p194
sssS'traceback'
p195
S'Traceback (most recent call last):\n  File "/home/francisco/Repositories/USB/SPE/gluon/restricted.py", line 227, in restricted\n    exec ccode in environment\n  File "/home/francisco/Repositories/USB/SPE/applications/SPE/models/db.py", line 197, in <module>\n    load_fixtures(db,T)\n  File "applications/SPE_lib/modules/fixtures.py", line 602, in load_fixtures\n    activo=\'True\'\n  File "/home/francisco/Repositories/USB/SPE/gluon/packages/dal/pydal/objects.py", line 726, in insert\n    ret = self._db._adapter.insert(self, self._listify(fields))\n  File "/home/francisco/Repositories/USB/SPE/gluon/packages/dal/pydal/adapters/base.py", line 746, in insert\n    raise e\nIntegrityError: (1452, u\'Cannot add or update a child row: a foreign key constraint fails (`SPE`.`Profesor`, CONSTRAINT `Profesor_ibfk_1` FOREIGN KEY (`usuario`) REFERENCES `UsuarioUSB` (`id`) ON DELETE CASCADE)\')\n'
p196
s.