(dp1
S'first_name'
p2
(dp3
S'length'
p4
I512
sS'unique'
p5
I00
sS'sortable'
p6
I2
sS'sql'
p7
S'VARCHAR(512) NOT NULL'
p8
sS'notnull'
p9
I01
sS'type'
p10
S'string'
p11
ssS'id_pais'
p12
(dp13
g4
I512
sg5
I00
sg6
I3
sg7
S'INT  NOT NULL , INDEX id_pais__idx (id_pais), FOREIGN KEY (id_pais) REFERENCES Pais (id) ON DELETE CASCADE'
p14
sg9
I01
sg10
S'reference Pais'
p15
ssS'id'
p16
(dp17
g4
I512
sg5
I00
sg6
I1
sg7
S'INT AUTO_INCREMENT NOT NULL'
p18
sg9
I00
sg10
g16
ss.